ARM GAS  /tmp/ccr7pOni.s 			page 1


   1              		.syntax unified
   2              		.cpu cortex-m3
   3              		.fpu softvfp
   4              		.eabi_attribute 20, 1
   5              		.eabi_attribute 21, 1
   6              		.eabi_attribute 23, 3
   7              		.eabi_attribute 24, 1
   8              		.eabi_attribute 25, 1
   9              		.eabi_attribute 26, 1
  10              		.eabi_attribute 30, 6
  11              		.eabi_attribute 18, 4
  12              		.thumb
  13              		.file	"core_cm3.c"
  22              		.text
  23              	.Ltext0:
  24              		.file 1 "../../libs/CMSIS/CM3/CoreSupport/core_cm3.c"
 646              		.section	.text.__get_PSP,"ax",%progbits
 647              		.align	2
 648              		.global	__get_PSP
 649              		.thumb
 650              		.thumb_func
 651              		.type	__get_PSP, %function
ARM GAS  /tmp/ccr7pOni.s 			page 26


 652              	__get_PSP:
 653              	.LFB0:
   1:../../libs/CMSIS/CM3/CoreSupport/core_cm3.c **** /**************************************************************************//**
   2:../../libs/CMSIS/CM3/CoreSupport/core_cm3.c ****  * @file     core_cm3.c
   3:../../libs/CMSIS/CM3/CoreSupport/core_cm3.c ****  * @brief    CMSIS Cortex-M3 Core Peripheral Access Layer Source File
   4:../../libs/CMSIS/CM3/CoreSupport/core_cm3.c ****  * @version  V1.30
   5:../../libs/CMSIS/CM3/CoreSupport/core_cm3.c ****  * @date     30. October 2009
   6:../../libs/CMSIS/CM3/CoreSupport/core_cm3.c ****  *
   7:../../libs/CMSIS/CM3/CoreSupport/core_cm3.c ****  * @note
   8:../../libs/CMSIS/CM3/CoreSupport/core_cm3.c ****  * Copyright (C) 2009 ARM Limited. All rights reserved.
   9:../../libs/CMSIS/CM3/CoreSupport/core_cm3.c ****  *
  10:../../libs/CMSIS/CM3/CoreSupport/core_cm3.c ****  * @par
  11:../../libs/CMSIS/CM3/CoreSupport/core_cm3.c ****  * ARM Limited (ARM) is supplying this software for use with Cortex-M 
  12:../../libs/CMSIS/CM3/CoreSupport/core_cm3.c ****  * processor based microcontrollers.  This file can be freely distributed 
  13:../../libs/CMSIS/CM3/CoreSupport/core_cm3.c ****  * within development tools that are supporting such ARM based processors. 
  14:../../libs/CMSIS/CM3/CoreSupport/core_cm3.c ****  *
  15:../../libs/CMSIS/CM3/CoreSupport/core_cm3.c ****  * @par
  16:../../libs/CMSIS/CM3/CoreSupport/core_cm3.c ****  * THIS SOFTWARE IS PROVIDED "AS IS".  NO WARRANTIES, WHETHER EXPRESS, IMPLIED
  17:../../libs/CMSIS/CM3/CoreSupport/core_cm3.c ****  * OR STATUTORY, INCLUDING, BUT NOT LIMITED TO, IMPLIED WARRANTIES OF
  18:../../libs/CMSIS/CM3/CoreSupport/core_cm3.c ****  * MERCHANTABILITY AND FITNESS FOR A PARTICULAR PURPOSE APPLY TO THIS SOFTWARE.
  19:../../libs/CMSIS/CM3/CoreSupport/core_cm3.c ****  * ARM SHALL NOT, IN ANY CIRCUMSTANCES, BE LIABLE FOR SPECIAL, INCIDENTAL, OR
  20:../../libs/CMSIS/CM3/CoreSupport/core_cm3.c ****  * CONSEQUENTIAL DAMAGES, FOR ANY REASON WHATSOEVER.
  21:../../libs/CMSIS/CM3/CoreSupport/core_cm3.c ****  *
  22:../../libs/CMSIS/CM3/CoreSupport/core_cm3.c ****  ******************************************************************************/
  23:../../libs/CMSIS/CM3/CoreSupport/core_cm3.c **** 
  24:../../libs/CMSIS/CM3/CoreSupport/core_cm3.c **** #include <stdint.h>
  25:../../libs/CMSIS/CM3/CoreSupport/core_cm3.c **** 
  26:../../libs/CMSIS/CM3/CoreSupport/core_cm3.c **** /* define compiler specific symbols */
  27:../../libs/CMSIS/CM3/CoreSupport/core_cm3.c **** #if defined ( __CC_ARM   )
  28:../../libs/CMSIS/CM3/CoreSupport/core_cm3.c ****   #define __ASM            __asm                                      /*!< asm keyword for ARM Comp
  29:../../libs/CMSIS/CM3/CoreSupport/core_cm3.c ****   #define __INLINE         __inline                                   /*!< inline keyword for ARM C
  30:../../libs/CMSIS/CM3/CoreSupport/core_cm3.c **** 
  31:../../libs/CMSIS/CM3/CoreSupport/core_cm3.c **** #elif defined ( __ICCARM__ )
  32:../../libs/CMSIS/CM3/CoreSupport/core_cm3.c ****   #define __ASM           __asm                                       /*!< asm keyword for IAR Comp
  33:../../libs/CMSIS/CM3/CoreSupport/core_cm3.c ****   #define __INLINE        inline                                      /*!< inline keyword for IAR C
  34:../../libs/CMSIS/CM3/CoreSupport/core_cm3.c **** 
  35:../../libs/CMSIS/CM3/CoreSupport/core_cm3.c **** #elif defined   (  __GNUC__  )
  36:../../libs/CMSIS/CM3/CoreSupport/core_cm3.c ****   #define __ASM            __asm                                      /*!< asm keyword for GNU Comp
  37:../../libs/CMSIS/CM3/CoreSupport/core_cm3.c ****   #define __INLINE         inline                                     /*!< inline keyword for GNU C
  38:../../libs/CMSIS/CM3/CoreSupport/core_cm3.c **** 
  39:../../libs/CMSIS/CM3/CoreSupport/core_cm3.c **** #elif defined   (  __TASKING__  )
  40:../../libs/CMSIS/CM3/CoreSupport/core_cm3.c ****   #define __ASM            __asm                                      /*!< asm keyword for TASKING 
  41:../../libs/CMSIS/CM3/CoreSupport/core_cm3.c ****   #define __INLINE         inline                                     /*!< inline keyword for TASKI
  42:../../libs/CMSIS/CM3/CoreSupport/core_cm3.c **** 
  43:../../libs/CMSIS/CM3/CoreSupport/core_cm3.c **** #endif
  44:../../libs/CMSIS/CM3/CoreSupport/core_cm3.c **** 
  45:../../libs/CMSIS/CM3/CoreSupport/core_cm3.c **** 
  46:../../libs/CMSIS/CM3/CoreSupport/core_cm3.c **** /* ###################  Compiler specific Intrinsics  ########################### */
  47:../../libs/CMSIS/CM3/CoreSupport/core_cm3.c **** 
  48:../../libs/CMSIS/CM3/CoreSupport/core_cm3.c **** #if defined ( __CC_ARM   ) /*------------------RealView Compiler -----------------*/
  49:../../libs/CMSIS/CM3/CoreSupport/core_cm3.c **** /* ARM armcc specific functions */
  50:../../libs/CMSIS/CM3/CoreSupport/core_cm3.c **** 
  51:../../libs/CMSIS/CM3/CoreSupport/core_cm3.c **** /**
  52:../../libs/CMSIS/CM3/CoreSupport/core_cm3.c ****  * @brief  Return the Process Stack Pointer
  53:../../libs/CMSIS/CM3/CoreSupport/core_cm3.c ****  *
  54:../../libs/CMSIS/CM3/CoreSupport/core_cm3.c ****  * @return ProcessStackPointer
  55:../../libs/CMSIS/CM3/CoreSupport/core_cm3.c ****  *
ARM GAS  /tmp/ccr7pOni.s 			page 27


  56:../../libs/CMSIS/CM3/CoreSupport/core_cm3.c ****  * Return the actual process stack pointer
  57:../../libs/CMSIS/CM3/CoreSupport/core_cm3.c ****  */
  58:../../libs/CMSIS/CM3/CoreSupport/core_cm3.c **** __ASM uint32_t __get_PSP(void)
  59:../../libs/CMSIS/CM3/CoreSupport/core_cm3.c **** {
  60:../../libs/CMSIS/CM3/CoreSupport/core_cm3.c ****   mrs r0, psp
  61:../../libs/CMSIS/CM3/CoreSupport/core_cm3.c ****   bx lr
  62:../../libs/CMSIS/CM3/CoreSupport/core_cm3.c **** }
  63:../../libs/CMSIS/CM3/CoreSupport/core_cm3.c **** 
  64:../../libs/CMSIS/CM3/CoreSupport/core_cm3.c **** /**
  65:../../libs/CMSIS/CM3/CoreSupport/core_cm3.c ****  * @brief  Set the Process Stack Pointer
  66:../../libs/CMSIS/CM3/CoreSupport/core_cm3.c ****  *
  67:../../libs/CMSIS/CM3/CoreSupport/core_cm3.c ****  * @param  topOfProcStack  Process Stack Pointer
  68:../../libs/CMSIS/CM3/CoreSupport/core_cm3.c ****  *
  69:../../libs/CMSIS/CM3/CoreSupport/core_cm3.c ****  * Assign the value ProcessStackPointer to the MSP 
  70:../../libs/CMSIS/CM3/CoreSupport/core_cm3.c ****  * (process stack pointer) Cortex processor register
  71:../../libs/CMSIS/CM3/CoreSupport/core_cm3.c ****  */
  72:../../libs/CMSIS/CM3/CoreSupport/core_cm3.c **** __ASM void __set_PSP(uint32_t topOfProcStack)
  73:../../libs/CMSIS/CM3/CoreSupport/core_cm3.c **** {
  74:../../libs/CMSIS/CM3/CoreSupport/core_cm3.c ****   msr psp, r0
  75:../../libs/CMSIS/CM3/CoreSupport/core_cm3.c ****   bx lr
  76:../../libs/CMSIS/CM3/CoreSupport/core_cm3.c **** }
  77:../../libs/CMSIS/CM3/CoreSupport/core_cm3.c **** 
  78:../../libs/CMSIS/CM3/CoreSupport/core_cm3.c **** /**
  79:../../libs/CMSIS/CM3/CoreSupport/core_cm3.c ****  * @brief  Return the Main Stack Pointer
  80:../../libs/CMSIS/CM3/CoreSupport/core_cm3.c ****  *
  81:../../libs/CMSIS/CM3/CoreSupport/core_cm3.c ****  * @return Main Stack Pointer
  82:../../libs/CMSIS/CM3/CoreSupport/core_cm3.c ****  *
  83:../../libs/CMSIS/CM3/CoreSupport/core_cm3.c ****  * Return the current value of the MSP (main stack pointer)
  84:../../libs/CMSIS/CM3/CoreSupport/core_cm3.c ****  * Cortex processor register
  85:../../libs/CMSIS/CM3/CoreSupport/core_cm3.c ****  */
  86:../../libs/CMSIS/CM3/CoreSupport/core_cm3.c **** __ASM uint32_t __get_MSP(void)
  87:../../libs/CMSIS/CM3/CoreSupport/core_cm3.c **** {
  88:../../libs/CMSIS/CM3/CoreSupport/core_cm3.c ****   mrs r0, msp
  89:../../libs/CMSIS/CM3/CoreSupport/core_cm3.c ****   bx lr
  90:../../libs/CMSIS/CM3/CoreSupport/core_cm3.c **** }
  91:../../libs/CMSIS/CM3/CoreSupport/core_cm3.c **** 
  92:../../libs/CMSIS/CM3/CoreSupport/core_cm3.c **** /**
  93:../../libs/CMSIS/CM3/CoreSupport/core_cm3.c ****  * @brief  Set the Main Stack Pointer
  94:../../libs/CMSIS/CM3/CoreSupport/core_cm3.c ****  *
  95:../../libs/CMSIS/CM3/CoreSupport/core_cm3.c ****  * @param  topOfMainStack  Main Stack Pointer
  96:../../libs/CMSIS/CM3/CoreSupport/core_cm3.c ****  *
  97:../../libs/CMSIS/CM3/CoreSupport/core_cm3.c ****  * Assign the value mainStackPointer to the MSP 
  98:../../libs/CMSIS/CM3/CoreSupport/core_cm3.c ****  * (main stack pointer) Cortex processor register
  99:../../libs/CMSIS/CM3/CoreSupport/core_cm3.c ****  */
 100:../../libs/CMSIS/CM3/CoreSupport/core_cm3.c **** __ASM void __set_MSP(uint32_t mainStackPointer)
 101:../../libs/CMSIS/CM3/CoreSupport/core_cm3.c **** {
 102:../../libs/CMSIS/CM3/CoreSupport/core_cm3.c ****   msr msp, r0
 103:../../libs/CMSIS/CM3/CoreSupport/core_cm3.c ****   bx lr
 104:../../libs/CMSIS/CM3/CoreSupport/core_cm3.c **** }
 105:../../libs/CMSIS/CM3/CoreSupport/core_cm3.c **** 
 106:../../libs/CMSIS/CM3/CoreSupport/core_cm3.c **** /**
 107:../../libs/CMSIS/CM3/CoreSupport/core_cm3.c ****  * @brief  Reverse byte order in unsigned short value
 108:../../libs/CMSIS/CM3/CoreSupport/core_cm3.c ****  *
 109:../../libs/CMSIS/CM3/CoreSupport/core_cm3.c ****  * @param   value  value to reverse
 110:../../libs/CMSIS/CM3/CoreSupport/core_cm3.c ****  * @return         reversed value
 111:../../libs/CMSIS/CM3/CoreSupport/core_cm3.c ****  *
 112:../../libs/CMSIS/CM3/CoreSupport/core_cm3.c ****  * Reverse byte order in unsigned short value
ARM GAS  /tmp/ccr7pOni.s 			page 28


 113:../../libs/CMSIS/CM3/CoreSupport/core_cm3.c ****  */
 114:../../libs/CMSIS/CM3/CoreSupport/core_cm3.c **** __ASM uint32_t __REV16(uint16_t value)
 115:../../libs/CMSIS/CM3/CoreSupport/core_cm3.c **** {
 116:../../libs/CMSIS/CM3/CoreSupport/core_cm3.c ****   rev16 r0, r0
 117:../../libs/CMSIS/CM3/CoreSupport/core_cm3.c ****   bx lr
 118:../../libs/CMSIS/CM3/CoreSupport/core_cm3.c **** }
 119:../../libs/CMSIS/CM3/CoreSupport/core_cm3.c **** 
 120:../../libs/CMSIS/CM3/CoreSupport/core_cm3.c **** /**
 121:../../libs/CMSIS/CM3/CoreSupport/core_cm3.c ****  * @brief  Reverse byte order in signed short value with sign extension to integer
 122:../../libs/CMSIS/CM3/CoreSupport/core_cm3.c ****  *
 123:../../libs/CMSIS/CM3/CoreSupport/core_cm3.c ****  * @param   value  value to reverse
 124:../../libs/CMSIS/CM3/CoreSupport/core_cm3.c ****  * @return         reversed value
 125:../../libs/CMSIS/CM3/CoreSupport/core_cm3.c ****  *
 126:../../libs/CMSIS/CM3/CoreSupport/core_cm3.c ****  * Reverse byte order in signed short value with sign extension to integer
 127:../../libs/CMSIS/CM3/CoreSupport/core_cm3.c ****  */
 128:../../libs/CMSIS/CM3/CoreSupport/core_cm3.c **** __ASM int32_t __REVSH(int16_t value)
 129:../../libs/CMSIS/CM3/CoreSupport/core_cm3.c **** {
 130:../../libs/CMSIS/CM3/CoreSupport/core_cm3.c ****   revsh r0, r0
 131:../../libs/CMSIS/CM3/CoreSupport/core_cm3.c ****   bx lr
 132:../../libs/CMSIS/CM3/CoreSupport/core_cm3.c **** }
 133:../../libs/CMSIS/CM3/CoreSupport/core_cm3.c **** 
 134:../../libs/CMSIS/CM3/CoreSupport/core_cm3.c **** 
 135:../../libs/CMSIS/CM3/CoreSupport/core_cm3.c **** #if (__ARMCC_VERSION < 400000)
 136:../../libs/CMSIS/CM3/CoreSupport/core_cm3.c **** 
 137:../../libs/CMSIS/CM3/CoreSupport/core_cm3.c **** /**
 138:../../libs/CMSIS/CM3/CoreSupport/core_cm3.c ****  * @brief  Remove the exclusive lock created by ldrex
 139:../../libs/CMSIS/CM3/CoreSupport/core_cm3.c ****  *
 140:../../libs/CMSIS/CM3/CoreSupport/core_cm3.c ****  * Removes the exclusive lock which is created by ldrex.
 141:../../libs/CMSIS/CM3/CoreSupport/core_cm3.c ****  */
 142:../../libs/CMSIS/CM3/CoreSupport/core_cm3.c **** __ASM void __CLREX(void)
 143:../../libs/CMSIS/CM3/CoreSupport/core_cm3.c **** {
 144:../../libs/CMSIS/CM3/CoreSupport/core_cm3.c ****   clrex
 145:../../libs/CMSIS/CM3/CoreSupport/core_cm3.c **** }
 146:../../libs/CMSIS/CM3/CoreSupport/core_cm3.c **** 
 147:../../libs/CMSIS/CM3/CoreSupport/core_cm3.c **** /**
 148:../../libs/CMSIS/CM3/CoreSupport/core_cm3.c ****  * @brief  Return the Base Priority value
 149:../../libs/CMSIS/CM3/CoreSupport/core_cm3.c ****  *
 150:../../libs/CMSIS/CM3/CoreSupport/core_cm3.c ****  * @return BasePriority
 151:../../libs/CMSIS/CM3/CoreSupport/core_cm3.c ****  *
 152:../../libs/CMSIS/CM3/CoreSupport/core_cm3.c ****  * Return the content of the base priority register
 153:../../libs/CMSIS/CM3/CoreSupport/core_cm3.c ****  */
 154:../../libs/CMSIS/CM3/CoreSupport/core_cm3.c **** __ASM uint32_t  __get_BASEPRI(void)
 155:../../libs/CMSIS/CM3/CoreSupport/core_cm3.c **** {
 156:../../libs/CMSIS/CM3/CoreSupport/core_cm3.c ****   mrs r0, basepri
 157:../../libs/CMSIS/CM3/CoreSupport/core_cm3.c ****   bx lr
 158:../../libs/CMSIS/CM3/CoreSupport/core_cm3.c **** }
 159:../../libs/CMSIS/CM3/CoreSupport/core_cm3.c **** 
 160:../../libs/CMSIS/CM3/CoreSupport/core_cm3.c **** /**
 161:../../libs/CMSIS/CM3/CoreSupport/core_cm3.c ****  * @brief  Set the Base Priority value
 162:../../libs/CMSIS/CM3/CoreSupport/core_cm3.c ****  *
 163:../../libs/CMSIS/CM3/CoreSupport/core_cm3.c ****  * @param  basePri  BasePriority
 164:../../libs/CMSIS/CM3/CoreSupport/core_cm3.c ****  *
 165:../../libs/CMSIS/CM3/CoreSupport/core_cm3.c ****  * Set the base priority register
 166:../../libs/CMSIS/CM3/CoreSupport/core_cm3.c ****  */
 167:../../libs/CMSIS/CM3/CoreSupport/core_cm3.c **** __ASM void __set_BASEPRI(uint32_t basePri)
 168:../../libs/CMSIS/CM3/CoreSupport/core_cm3.c **** {
 169:../../libs/CMSIS/CM3/CoreSupport/core_cm3.c ****   msr basepri, r0
ARM GAS  /tmp/ccr7pOni.s 			page 29


 170:../../libs/CMSIS/CM3/CoreSupport/core_cm3.c ****   bx lr
 171:../../libs/CMSIS/CM3/CoreSupport/core_cm3.c **** }
 172:../../libs/CMSIS/CM3/CoreSupport/core_cm3.c **** 
 173:../../libs/CMSIS/CM3/CoreSupport/core_cm3.c **** /**
 174:../../libs/CMSIS/CM3/CoreSupport/core_cm3.c ****  * @brief  Return the Priority Mask value
 175:../../libs/CMSIS/CM3/CoreSupport/core_cm3.c ****  *
 176:../../libs/CMSIS/CM3/CoreSupport/core_cm3.c ****  * @return PriMask
 177:../../libs/CMSIS/CM3/CoreSupport/core_cm3.c ****  *
 178:../../libs/CMSIS/CM3/CoreSupport/core_cm3.c ****  * Return state of the priority mask bit from the priority mask register
 179:../../libs/CMSIS/CM3/CoreSupport/core_cm3.c ****  */
 180:../../libs/CMSIS/CM3/CoreSupport/core_cm3.c **** __ASM uint32_t __get_PRIMASK(void)
 181:../../libs/CMSIS/CM3/CoreSupport/core_cm3.c **** {
 182:../../libs/CMSIS/CM3/CoreSupport/core_cm3.c ****   mrs r0, primask
 183:../../libs/CMSIS/CM3/CoreSupport/core_cm3.c ****   bx lr
 184:../../libs/CMSIS/CM3/CoreSupport/core_cm3.c **** }
 185:../../libs/CMSIS/CM3/CoreSupport/core_cm3.c **** 
 186:../../libs/CMSIS/CM3/CoreSupport/core_cm3.c **** /**
 187:../../libs/CMSIS/CM3/CoreSupport/core_cm3.c ****  * @brief  Set the Priority Mask value
 188:../../libs/CMSIS/CM3/CoreSupport/core_cm3.c ****  *
 189:../../libs/CMSIS/CM3/CoreSupport/core_cm3.c ****  * @param  priMask  PriMask
 190:../../libs/CMSIS/CM3/CoreSupport/core_cm3.c ****  *
 191:../../libs/CMSIS/CM3/CoreSupport/core_cm3.c ****  * Set the priority mask bit in the priority mask register
 192:../../libs/CMSIS/CM3/CoreSupport/core_cm3.c ****  */
 193:../../libs/CMSIS/CM3/CoreSupport/core_cm3.c **** __ASM void __set_PRIMASK(uint32_t priMask)
 194:../../libs/CMSIS/CM3/CoreSupport/core_cm3.c **** {
 195:../../libs/CMSIS/CM3/CoreSupport/core_cm3.c ****   msr primask, r0
 196:../../libs/CMSIS/CM3/CoreSupport/core_cm3.c ****   bx lr
 197:../../libs/CMSIS/CM3/CoreSupport/core_cm3.c **** }
 198:../../libs/CMSIS/CM3/CoreSupport/core_cm3.c **** 
 199:../../libs/CMSIS/CM3/CoreSupport/core_cm3.c **** /**
 200:../../libs/CMSIS/CM3/CoreSupport/core_cm3.c ****  * @brief  Return the Fault Mask value
 201:../../libs/CMSIS/CM3/CoreSupport/core_cm3.c ****  *
 202:../../libs/CMSIS/CM3/CoreSupport/core_cm3.c ****  * @return FaultMask
 203:../../libs/CMSIS/CM3/CoreSupport/core_cm3.c ****  *
 204:../../libs/CMSIS/CM3/CoreSupport/core_cm3.c ****  * Return the content of the fault mask register
 205:../../libs/CMSIS/CM3/CoreSupport/core_cm3.c ****  */
 206:../../libs/CMSIS/CM3/CoreSupport/core_cm3.c **** __ASM uint32_t  __get_FAULTMASK(void)
 207:../../libs/CMSIS/CM3/CoreSupport/core_cm3.c **** {
 208:../../libs/CMSIS/CM3/CoreSupport/core_cm3.c ****   mrs r0, faultmask
 209:../../libs/CMSIS/CM3/CoreSupport/core_cm3.c ****   bx lr
 210:../../libs/CMSIS/CM3/CoreSupport/core_cm3.c **** }
 211:../../libs/CMSIS/CM3/CoreSupport/core_cm3.c **** 
 212:../../libs/CMSIS/CM3/CoreSupport/core_cm3.c **** /**
 213:../../libs/CMSIS/CM3/CoreSupport/core_cm3.c ****  * @brief  Set the Fault Mask value
 214:../../libs/CMSIS/CM3/CoreSupport/core_cm3.c ****  *
 215:../../libs/CMSIS/CM3/CoreSupport/core_cm3.c ****  * @param  faultMask  faultMask value
 216:../../libs/CMSIS/CM3/CoreSupport/core_cm3.c ****  *
 217:../../libs/CMSIS/CM3/CoreSupport/core_cm3.c ****  * Set the fault mask register
 218:../../libs/CMSIS/CM3/CoreSupport/core_cm3.c ****  */
 219:../../libs/CMSIS/CM3/CoreSupport/core_cm3.c **** __ASM void __set_FAULTMASK(uint32_t faultMask)
 220:../../libs/CMSIS/CM3/CoreSupport/core_cm3.c **** {
 221:../../libs/CMSIS/CM3/CoreSupport/core_cm3.c ****   msr faultmask, r0
 222:../../libs/CMSIS/CM3/CoreSupport/core_cm3.c ****   bx lr
 223:../../libs/CMSIS/CM3/CoreSupport/core_cm3.c **** }
 224:../../libs/CMSIS/CM3/CoreSupport/core_cm3.c **** 
 225:../../libs/CMSIS/CM3/CoreSupport/core_cm3.c **** /**
 226:../../libs/CMSIS/CM3/CoreSupport/core_cm3.c ****  * @brief  Return the Control Register value
ARM GAS  /tmp/ccr7pOni.s 			page 30


 227:../../libs/CMSIS/CM3/CoreSupport/core_cm3.c ****  * 
 228:../../libs/CMSIS/CM3/CoreSupport/core_cm3.c ****  * @return Control value
 229:../../libs/CMSIS/CM3/CoreSupport/core_cm3.c ****  *
 230:../../libs/CMSIS/CM3/CoreSupport/core_cm3.c ****  * Return the content of the control register
 231:../../libs/CMSIS/CM3/CoreSupport/core_cm3.c ****  */
 232:../../libs/CMSIS/CM3/CoreSupport/core_cm3.c **** __ASM uint32_t __get_CONTROL(void)
 233:../../libs/CMSIS/CM3/CoreSupport/core_cm3.c **** {
 234:../../libs/CMSIS/CM3/CoreSupport/core_cm3.c ****   mrs r0, control
 235:../../libs/CMSIS/CM3/CoreSupport/core_cm3.c ****   bx lr
 236:../../libs/CMSIS/CM3/CoreSupport/core_cm3.c **** }
 237:../../libs/CMSIS/CM3/CoreSupport/core_cm3.c **** 
 238:../../libs/CMSIS/CM3/CoreSupport/core_cm3.c **** /**
 239:../../libs/CMSIS/CM3/CoreSupport/core_cm3.c ****  * @brief  Set the Control Register value
 240:../../libs/CMSIS/CM3/CoreSupport/core_cm3.c ****  *
 241:../../libs/CMSIS/CM3/CoreSupport/core_cm3.c ****  * @param  control  Control value
 242:../../libs/CMSIS/CM3/CoreSupport/core_cm3.c ****  *
 243:../../libs/CMSIS/CM3/CoreSupport/core_cm3.c ****  * Set the control register
 244:../../libs/CMSIS/CM3/CoreSupport/core_cm3.c ****  */
 245:../../libs/CMSIS/CM3/CoreSupport/core_cm3.c **** __ASM void __set_CONTROL(uint32_t control)
 246:../../libs/CMSIS/CM3/CoreSupport/core_cm3.c **** {
 247:../../libs/CMSIS/CM3/CoreSupport/core_cm3.c ****   msr control, r0
 248:../../libs/CMSIS/CM3/CoreSupport/core_cm3.c ****   bx lr
 249:../../libs/CMSIS/CM3/CoreSupport/core_cm3.c **** }
 250:../../libs/CMSIS/CM3/CoreSupport/core_cm3.c **** 
 251:../../libs/CMSIS/CM3/CoreSupport/core_cm3.c **** #endif /* __ARMCC_VERSION  */ 
 252:../../libs/CMSIS/CM3/CoreSupport/core_cm3.c **** 
 253:../../libs/CMSIS/CM3/CoreSupport/core_cm3.c **** 
 254:../../libs/CMSIS/CM3/CoreSupport/core_cm3.c **** 
 255:../../libs/CMSIS/CM3/CoreSupport/core_cm3.c **** #elif (defined (__ICCARM__)) /*------------------ ICC Compiler -------------------*/
 256:../../libs/CMSIS/CM3/CoreSupport/core_cm3.c **** /* IAR iccarm specific functions */
 257:../../libs/CMSIS/CM3/CoreSupport/core_cm3.c **** #pragma diag_suppress=Pe940
 258:../../libs/CMSIS/CM3/CoreSupport/core_cm3.c **** 
 259:../../libs/CMSIS/CM3/CoreSupport/core_cm3.c **** /**
 260:../../libs/CMSIS/CM3/CoreSupport/core_cm3.c ****  * @brief  Return the Process Stack Pointer
 261:../../libs/CMSIS/CM3/CoreSupport/core_cm3.c ****  *
 262:../../libs/CMSIS/CM3/CoreSupport/core_cm3.c ****  * @return ProcessStackPointer
 263:../../libs/CMSIS/CM3/CoreSupport/core_cm3.c ****  *
 264:../../libs/CMSIS/CM3/CoreSupport/core_cm3.c ****  * Return the actual process stack pointer
 265:../../libs/CMSIS/CM3/CoreSupport/core_cm3.c ****  */
 266:../../libs/CMSIS/CM3/CoreSupport/core_cm3.c **** uint32_t __get_PSP(void)
 267:../../libs/CMSIS/CM3/CoreSupport/core_cm3.c **** {
 268:../../libs/CMSIS/CM3/CoreSupport/core_cm3.c ****   __ASM("mrs r0, psp");
 269:../../libs/CMSIS/CM3/CoreSupport/core_cm3.c ****   __ASM("bx lr");
 270:../../libs/CMSIS/CM3/CoreSupport/core_cm3.c **** }
 271:../../libs/CMSIS/CM3/CoreSupport/core_cm3.c **** 
 272:../../libs/CMSIS/CM3/CoreSupport/core_cm3.c **** /**
 273:../../libs/CMSIS/CM3/CoreSupport/core_cm3.c ****  * @brief  Set the Process Stack Pointer
 274:../../libs/CMSIS/CM3/CoreSupport/core_cm3.c ****  *
 275:../../libs/CMSIS/CM3/CoreSupport/core_cm3.c ****  * @param  topOfProcStack  Process Stack Pointer
 276:../../libs/CMSIS/CM3/CoreSupport/core_cm3.c ****  *
 277:../../libs/CMSIS/CM3/CoreSupport/core_cm3.c ****  * Assign the value ProcessStackPointer to the MSP 
 278:../../libs/CMSIS/CM3/CoreSupport/core_cm3.c ****  * (process stack pointer) Cortex processor register
 279:../../libs/CMSIS/CM3/CoreSupport/core_cm3.c ****  */
 280:../../libs/CMSIS/CM3/CoreSupport/core_cm3.c **** void __set_PSP(uint32_t topOfProcStack)
 281:../../libs/CMSIS/CM3/CoreSupport/core_cm3.c **** {
 282:../../libs/CMSIS/CM3/CoreSupport/core_cm3.c ****   __ASM("msr psp, r0");
 283:../../libs/CMSIS/CM3/CoreSupport/core_cm3.c ****   __ASM("bx lr");
ARM GAS  /tmp/ccr7pOni.s 			page 31


 284:../../libs/CMSIS/CM3/CoreSupport/core_cm3.c **** }
 285:../../libs/CMSIS/CM3/CoreSupport/core_cm3.c **** 
 286:../../libs/CMSIS/CM3/CoreSupport/core_cm3.c **** /**
 287:../../libs/CMSIS/CM3/CoreSupport/core_cm3.c ****  * @brief  Return the Main Stack Pointer
 288:../../libs/CMSIS/CM3/CoreSupport/core_cm3.c ****  *
 289:../../libs/CMSIS/CM3/CoreSupport/core_cm3.c ****  * @return Main Stack Pointer
 290:../../libs/CMSIS/CM3/CoreSupport/core_cm3.c ****  *
 291:../../libs/CMSIS/CM3/CoreSupport/core_cm3.c ****  * Return the current value of the MSP (main stack pointer)
 292:../../libs/CMSIS/CM3/CoreSupport/core_cm3.c ****  * Cortex processor register
 293:../../libs/CMSIS/CM3/CoreSupport/core_cm3.c ****  */
 294:../../libs/CMSIS/CM3/CoreSupport/core_cm3.c **** uint32_t __get_MSP(void)
 295:../../libs/CMSIS/CM3/CoreSupport/core_cm3.c **** {
 296:../../libs/CMSIS/CM3/CoreSupport/core_cm3.c ****   __ASM("mrs r0, msp");
 297:../../libs/CMSIS/CM3/CoreSupport/core_cm3.c ****   __ASM("bx lr");
 298:../../libs/CMSIS/CM3/CoreSupport/core_cm3.c **** }
 299:../../libs/CMSIS/CM3/CoreSupport/core_cm3.c **** 
 300:../../libs/CMSIS/CM3/CoreSupport/core_cm3.c **** /**
 301:../../libs/CMSIS/CM3/CoreSupport/core_cm3.c ****  * @brief  Set the Main Stack Pointer
 302:../../libs/CMSIS/CM3/CoreSupport/core_cm3.c ****  *
 303:../../libs/CMSIS/CM3/CoreSupport/core_cm3.c ****  * @param  topOfMainStack  Main Stack Pointer
 304:../../libs/CMSIS/CM3/CoreSupport/core_cm3.c ****  *
 305:../../libs/CMSIS/CM3/CoreSupport/core_cm3.c ****  * Assign the value mainStackPointer to the MSP 
 306:../../libs/CMSIS/CM3/CoreSupport/core_cm3.c ****  * (main stack pointer) Cortex processor register
 307:../../libs/CMSIS/CM3/CoreSupport/core_cm3.c ****  */
 308:../../libs/CMSIS/CM3/CoreSupport/core_cm3.c **** void __set_MSP(uint32_t topOfMainStack)
 309:../../libs/CMSIS/CM3/CoreSupport/core_cm3.c **** {
 310:../../libs/CMSIS/CM3/CoreSupport/core_cm3.c ****   __ASM("msr msp, r0");
 311:../../libs/CMSIS/CM3/CoreSupport/core_cm3.c ****   __ASM("bx lr");
 312:../../libs/CMSIS/CM3/CoreSupport/core_cm3.c **** }
 313:../../libs/CMSIS/CM3/CoreSupport/core_cm3.c **** 
 314:../../libs/CMSIS/CM3/CoreSupport/core_cm3.c **** /**
 315:../../libs/CMSIS/CM3/CoreSupport/core_cm3.c ****  * @brief  Reverse byte order in unsigned short value
 316:../../libs/CMSIS/CM3/CoreSupport/core_cm3.c ****  *
 317:../../libs/CMSIS/CM3/CoreSupport/core_cm3.c ****  * @param  value  value to reverse
 318:../../libs/CMSIS/CM3/CoreSupport/core_cm3.c ****  * @return        reversed value
 319:../../libs/CMSIS/CM3/CoreSupport/core_cm3.c ****  *
 320:../../libs/CMSIS/CM3/CoreSupport/core_cm3.c ****  * Reverse byte order in unsigned short value
 321:../../libs/CMSIS/CM3/CoreSupport/core_cm3.c ****  */
 322:../../libs/CMSIS/CM3/CoreSupport/core_cm3.c **** uint32_t __REV16(uint16_t value)
 323:../../libs/CMSIS/CM3/CoreSupport/core_cm3.c **** {
 324:../../libs/CMSIS/CM3/CoreSupport/core_cm3.c ****   __ASM("rev16 r0, r0");
 325:../../libs/CMSIS/CM3/CoreSupport/core_cm3.c ****   __ASM("bx lr");
 326:../../libs/CMSIS/CM3/CoreSupport/core_cm3.c **** }
 327:../../libs/CMSIS/CM3/CoreSupport/core_cm3.c **** 
 328:../../libs/CMSIS/CM3/CoreSupport/core_cm3.c **** /**
 329:../../libs/CMSIS/CM3/CoreSupport/core_cm3.c ****  * @brief  Reverse bit order of value
 330:../../libs/CMSIS/CM3/CoreSupport/core_cm3.c ****  *
 331:../../libs/CMSIS/CM3/CoreSupport/core_cm3.c ****  * @param  value  value to reverse
 332:../../libs/CMSIS/CM3/CoreSupport/core_cm3.c ****  * @return        reversed value
 333:../../libs/CMSIS/CM3/CoreSupport/core_cm3.c ****  *
 334:../../libs/CMSIS/CM3/CoreSupport/core_cm3.c ****  * Reverse bit order of value
 335:../../libs/CMSIS/CM3/CoreSupport/core_cm3.c ****  */
 336:../../libs/CMSIS/CM3/CoreSupport/core_cm3.c **** uint32_t __RBIT(uint32_t value)
 337:../../libs/CMSIS/CM3/CoreSupport/core_cm3.c **** {
 338:../../libs/CMSIS/CM3/CoreSupport/core_cm3.c ****   __ASM("rbit r0, r0");
 339:../../libs/CMSIS/CM3/CoreSupport/core_cm3.c ****   __ASM("bx lr");
 340:../../libs/CMSIS/CM3/CoreSupport/core_cm3.c **** }
ARM GAS  /tmp/ccr7pOni.s 			page 32


 341:../../libs/CMSIS/CM3/CoreSupport/core_cm3.c **** 
 342:../../libs/CMSIS/CM3/CoreSupport/core_cm3.c **** /**
 343:../../libs/CMSIS/CM3/CoreSupport/core_cm3.c ****  * @brief  LDR Exclusive (8 bit)
 344:../../libs/CMSIS/CM3/CoreSupport/core_cm3.c ****  *
 345:../../libs/CMSIS/CM3/CoreSupport/core_cm3.c ****  * @param  *addr  address pointer
 346:../../libs/CMSIS/CM3/CoreSupport/core_cm3.c ****  * @return        value of (*address)
 347:../../libs/CMSIS/CM3/CoreSupport/core_cm3.c ****  *
 348:../../libs/CMSIS/CM3/CoreSupport/core_cm3.c ****  * Exclusive LDR command for 8 bit values)
 349:../../libs/CMSIS/CM3/CoreSupport/core_cm3.c ****  */
 350:../../libs/CMSIS/CM3/CoreSupport/core_cm3.c **** uint8_t __LDREXB(uint8_t *addr)
 351:../../libs/CMSIS/CM3/CoreSupport/core_cm3.c **** {
 352:../../libs/CMSIS/CM3/CoreSupport/core_cm3.c ****   __ASM("ldrexb r0, [r0]");
 353:../../libs/CMSIS/CM3/CoreSupport/core_cm3.c ****   __ASM("bx lr"); 
 354:../../libs/CMSIS/CM3/CoreSupport/core_cm3.c **** }
 355:../../libs/CMSIS/CM3/CoreSupport/core_cm3.c **** 
 356:../../libs/CMSIS/CM3/CoreSupport/core_cm3.c **** /**
 357:../../libs/CMSIS/CM3/CoreSupport/core_cm3.c ****  * @brief  LDR Exclusive (16 bit)
 358:../../libs/CMSIS/CM3/CoreSupport/core_cm3.c ****  *
 359:../../libs/CMSIS/CM3/CoreSupport/core_cm3.c ****  * @param  *addr  address pointer
 360:../../libs/CMSIS/CM3/CoreSupport/core_cm3.c ****  * @return        value of (*address)
 361:../../libs/CMSIS/CM3/CoreSupport/core_cm3.c ****  *
 362:../../libs/CMSIS/CM3/CoreSupport/core_cm3.c ****  * Exclusive LDR command for 16 bit values
 363:../../libs/CMSIS/CM3/CoreSupport/core_cm3.c ****  */
 364:../../libs/CMSIS/CM3/CoreSupport/core_cm3.c **** uint16_t __LDREXH(uint16_t *addr)
 365:../../libs/CMSIS/CM3/CoreSupport/core_cm3.c **** {
 366:../../libs/CMSIS/CM3/CoreSupport/core_cm3.c ****   __ASM("ldrexh r0, [r0]");
 367:../../libs/CMSIS/CM3/CoreSupport/core_cm3.c ****   __ASM("bx lr");
 368:../../libs/CMSIS/CM3/CoreSupport/core_cm3.c **** }
 369:../../libs/CMSIS/CM3/CoreSupport/core_cm3.c **** 
 370:../../libs/CMSIS/CM3/CoreSupport/core_cm3.c **** /**
 371:../../libs/CMSIS/CM3/CoreSupport/core_cm3.c ****  * @brief  LDR Exclusive (32 bit)
 372:../../libs/CMSIS/CM3/CoreSupport/core_cm3.c ****  *
 373:../../libs/CMSIS/CM3/CoreSupport/core_cm3.c ****  * @param  *addr  address pointer
 374:../../libs/CMSIS/CM3/CoreSupport/core_cm3.c ****  * @return        value of (*address)
 375:../../libs/CMSIS/CM3/CoreSupport/core_cm3.c ****  *
 376:../../libs/CMSIS/CM3/CoreSupport/core_cm3.c ****  * Exclusive LDR command for 32 bit values
 377:../../libs/CMSIS/CM3/CoreSupport/core_cm3.c ****  */
 378:../../libs/CMSIS/CM3/CoreSupport/core_cm3.c **** uint32_t __LDREXW(uint32_t *addr)
 379:../../libs/CMSIS/CM3/CoreSupport/core_cm3.c **** {
 380:../../libs/CMSIS/CM3/CoreSupport/core_cm3.c ****   __ASM("ldrex r0, [r0]");
 381:../../libs/CMSIS/CM3/CoreSupport/core_cm3.c ****   __ASM("bx lr");
 382:../../libs/CMSIS/CM3/CoreSupport/core_cm3.c **** }
 383:../../libs/CMSIS/CM3/CoreSupport/core_cm3.c **** 
 384:../../libs/CMSIS/CM3/CoreSupport/core_cm3.c **** /**
 385:../../libs/CMSIS/CM3/CoreSupport/core_cm3.c ****  * @brief  STR Exclusive (8 bit)
 386:../../libs/CMSIS/CM3/CoreSupport/core_cm3.c ****  *
 387:../../libs/CMSIS/CM3/CoreSupport/core_cm3.c ****  * @param  value  value to store
 388:../../libs/CMSIS/CM3/CoreSupport/core_cm3.c ****  * @param  *addr  address pointer
 389:../../libs/CMSIS/CM3/CoreSupport/core_cm3.c ****  * @return        successful / failed
 390:../../libs/CMSIS/CM3/CoreSupport/core_cm3.c ****  *
 391:../../libs/CMSIS/CM3/CoreSupport/core_cm3.c ****  * Exclusive STR command for 8 bit values
 392:../../libs/CMSIS/CM3/CoreSupport/core_cm3.c ****  */
 393:../../libs/CMSIS/CM3/CoreSupport/core_cm3.c **** uint32_t __STREXB(uint8_t value, uint8_t *addr)
 394:../../libs/CMSIS/CM3/CoreSupport/core_cm3.c **** {
 395:../../libs/CMSIS/CM3/CoreSupport/core_cm3.c ****   __ASM("strexb r0, r0, [r1]");
 396:../../libs/CMSIS/CM3/CoreSupport/core_cm3.c ****   __ASM("bx lr");
 397:../../libs/CMSIS/CM3/CoreSupport/core_cm3.c **** }
ARM GAS  /tmp/ccr7pOni.s 			page 33


 398:../../libs/CMSIS/CM3/CoreSupport/core_cm3.c **** 
 399:../../libs/CMSIS/CM3/CoreSupport/core_cm3.c **** /**
 400:../../libs/CMSIS/CM3/CoreSupport/core_cm3.c ****  * @brief  STR Exclusive (16 bit)
 401:../../libs/CMSIS/CM3/CoreSupport/core_cm3.c ****  *
 402:../../libs/CMSIS/CM3/CoreSupport/core_cm3.c ****  * @param  value  value to store
 403:../../libs/CMSIS/CM3/CoreSupport/core_cm3.c ****  * @param  *addr  address pointer
 404:../../libs/CMSIS/CM3/CoreSupport/core_cm3.c ****  * @return        successful / failed
 405:../../libs/CMSIS/CM3/CoreSupport/core_cm3.c ****  *
 406:../../libs/CMSIS/CM3/CoreSupport/core_cm3.c ****  * Exclusive STR command for 16 bit values
 407:../../libs/CMSIS/CM3/CoreSupport/core_cm3.c ****  */
 408:../../libs/CMSIS/CM3/CoreSupport/core_cm3.c **** uint32_t __STREXH(uint16_t value, uint16_t *addr)
 409:../../libs/CMSIS/CM3/CoreSupport/core_cm3.c **** {
 410:../../libs/CMSIS/CM3/CoreSupport/core_cm3.c ****   __ASM("strexh r0, r0, [r1]");
 411:../../libs/CMSIS/CM3/CoreSupport/core_cm3.c ****   __ASM("bx lr");
 412:../../libs/CMSIS/CM3/CoreSupport/core_cm3.c **** }
 413:../../libs/CMSIS/CM3/CoreSupport/core_cm3.c **** 
 414:../../libs/CMSIS/CM3/CoreSupport/core_cm3.c **** /**
 415:../../libs/CMSIS/CM3/CoreSupport/core_cm3.c ****  * @brief  STR Exclusive (32 bit)
 416:../../libs/CMSIS/CM3/CoreSupport/core_cm3.c ****  *
 417:../../libs/CMSIS/CM3/CoreSupport/core_cm3.c ****  * @param  value  value to store
 418:../../libs/CMSIS/CM3/CoreSupport/core_cm3.c ****  * @param  *addr  address pointer
 419:../../libs/CMSIS/CM3/CoreSupport/core_cm3.c ****  * @return        successful / failed
 420:../../libs/CMSIS/CM3/CoreSupport/core_cm3.c ****  *
 421:../../libs/CMSIS/CM3/CoreSupport/core_cm3.c ****  * Exclusive STR command for 32 bit values
 422:../../libs/CMSIS/CM3/CoreSupport/core_cm3.c ****  */
 423:../../libs/CMSIS/CM3/CoreSupport/core_cm3.c **** uint32_t __STREXW(uint32_t value, uint32_t *addr)
 424:../../libs/CMSIS/CM3/CoreSupport/core_cm3.c **** {
 425:../../libs/CMSIS/CM3/CoreSupport/core_cm3.c ****   __ASM("strex r0, r0, [r1]");
 426:../../libs/CMSIS/CM3/CoreSupport/core_cm3.c ****   __ASM("bx lr");
 427:../../libs/CMSIS/CM3/CoreSupport/core_cm3.c **** }
 428:../../libs/CMSIS/CM3/CoreSupport/core_cm3.c **** 
 429:../../libs/CMSIS/CM3/CoreSupport/core_cm3.c **** #pragma diag_default=Pe940
 430:../../libs/CMSIS/CM3/CoreSupport/core_cm3.c **** 
 431:../../libs/CMSIS/CM3/CoreSupport/core_cm3.c **** 
 432:../../libs/CMSIS/CM3/CoreSupport/core_cm3.c **** #elif (defined (__GNUC__)) /*------------------ GNU Compiler ---------------------*/
 433:../../libs/CMSIS/CM3/CoreSupport/core_cm3.c **** /* GNU gcc specific functions */
 434:../../libs/CMSIS/CM3/CoreSupport/core_cm3.c **** 
 435:../../libs/CMSIS/CM3/CoreSupport/core_cm3.c **** /**
 436:../../libs/CMSIS/CM3/CoreSupport/core_cm3.c ****  * @brief  Return the Process Stack Pointer
 437:../../libs/CMSIS/CM3/CoreSupport/core_cm3.c ****  *
 438:../../libs/CMSIS/CM3/CoreSupport/core_cm3.c ****  * @return ProcessStackPointer
 439:../../libs/CMSIS/CM3/CoreSupport/core_cm3.c ****  *
 440:../../libs/CMSIS/CM3/CoreSupport/core_cm3.c ****  * Return the actual process stack pointer
 441:../../libs/CMSIS/CM3/CoreSupport/core_cm3.c ****  */
 442:../../libs/CMSIS/CM3/CoreSupport/core_cm3.c **** uint32_t __get_PSP(void) __attribute__( ( naked ) );
 443:../../libs/CMSIS/CM3/CoreSupport/core_cm3.c **** uint32_t __get_PSP(void)
 444:../../libs/CMSIS/CM3/CoreSupport/core_cm3.c **** {
 654              		.loc 1 444 0
 655              		@ Naked Function: prologue and epilogue provided by programmer.
 656              		@ args = 0, pretend = 0, frame = 0
 657              		@ frame_needed = 1, uses_anonymous_args = 0
 445:../../libs/CMSIS/CM3/CoreSupport/core_cm3.c ****   uint32_t result=0;
 658              		.loc 1 445 0
 659 0000 4FF00004 		mov	r4, #0
 446:../../libs/CMSIS/CM3/CoreSupport/core_cm3.c **** 
 447:../../libs/CMSIS/CM3/CoreSupport/core_cm3.c ****   __ASM volatile ("MRS %0, psp\n\t" 
 660              		.loc 1 447 0
ARM GAS  /tmp/ccr7pOni.s 			page 34


 661              	@ 447 "../../libs/CMSIS/CM3/CoreSupport/core_cm3.c" 1
 662 0004 EFF30984 		MRS r4, psp
 663 0008 2046     		MOV r0, r4 
 664 000a 7047     		BX  lr     
 665              		
 666              	@ 0 "" 2
 448:../../libs/CMSIS/CM3/CoreSupport/core_cm3.c ****                   "MOV r0, %0 \n\t"
 449:../../libs/CMSIS/CM3/CoreSupport/core_cm3.c ****                   "BX  lr     \n\t"  : "=r" (result) );
 450:../../libs/CMSIS/CM3/CoreSupport/core_cm3.c ****   return(result);
 667              		.loc 1 450 0
 668              		.thumb
 669 000c 2346     		mov	r3, r4
 451:../../libs/CMSIS/CM3/CoreSupport/core_cm3.c **** }
 670              		.loc 1 451 0
 671 000e 1846     		mov	r0, r3
 672              	.LFE0:
 673              		.size	__get_PSP, .-__get_PSP
 674              		.section	.text.__set_PSP,"ax",%progbits
 675              		.align	2
 676              		.global	__set_PSP
 677              		.thumb
 678              		.thumb_func
 679              		.type	__set_PSP, %function
 680              	__set_PSP:
 681              	.LFB1:
 452:../../libs/CMSIS/CM3/CoreSupport/core_cm3.c **** 
 453:../../libs/CMSIS/CM3/CoreSupport/core_cm3.c **** /**
 454:../../libs/CMSIS/CM3/CoreSupport/core_cm3.c ****  * @brief  Set the Process Stack Pointer
 455:../../libs/CMSIS/CM3/CoreSupport/core_cm3.c ****  *
 456:../../libs/CMSIS/CM3/CoreSupport/core_cm3.c ****  * @param  topOfProcStack  Process Stack Pointer
 457:../../libs/CMSIS/CM3/CoreSupport/core_cm3.c ****  *
 458:../../libs/CMSIS/CM3/CoreSupport/core_cm3.c ****  * Assign the value ProcessStackPointer to the MSP 
 459:../../libs/CMSIS/CM3/CoreSupport/core_cm3.c ****  * (process stack pointer) Cortex processor register
 460:../../libs/CMSIS/CM3/CoreSupport/core_cm3.c ****  */
 461:../../libs/CMSIS/CM3/CoreSupport/core_cm3.c **** void __set_PSP(uint32_t topOfProcStack) __attribute__( ( naked ) );
 462:../../libs/CMSIS/CM3/CoreSupport/core_cm3.c **** void __set_PSP(uint32_t topOfProcStack)
 463:../../libs/CMSIS/CM3/CoreSupport/core_cm3.c **** {
 682              		.loc 1 463 0
 683              		@ Naked Function: prologue and epilogue provided by programmer.
 684              		@ args = 0, pretend = 0, frame = 0
 685              		@ frame_needed = 1, uses_anonymous_args = 0
 686 0000 0346     		mov	r3, r0
 464:../../libs/CMSIS/CM3/CoreSupport/core_cm3.c ****   __ASM volatile ("MSR psp, %0\n\t"
 687              		.loc 1 464 0
 688              	@ 464 "../../libs/CMSIS/CM3/CoreSupport/core_cm3.c" 1
 689 0002 83F30988 		MSR psp, r3
 690 0006 7047     		BX  lr     
 691              		
 692              	@ 0 "" 2
 465:../../libs/CMSIS/CM3/CoreSupport/core_cm3.c ****                   "BX  lr     \n\t" : : "r" (topOfProcStack) );
 466:../../libs/CMSIS/CM3/CoreSupport/core_cm3.c **** }
 693              		.loc 1 466 0
 694              		.thumb
 695              	.LFE1:
 696              		.size	__set_PSP, .-__set_PSP
 697              		.section	.text.__get_MSP,"ax",%progbits
 698              		.align	2
ARM GAS  /tmp/ccr7pOni.s 			page 35


 699              		.global	__get_MSP
 700              		.thumb
 701              		.thumb_func
 702              		.type	__get_MSP, %function
 703              	__get_MSP:
 704              	.LFB2:
 467:../../libs/CMSIS/CM3/CoreSupport/core_cm3.c **** 
 468:../../libs/CMSIS/CM3/CoreSupport/core_cm3.c **** /**
 469:../../libs/CMSIS/CM3/CoreSupport/core_cm3.c ****  * @brief  Return the Main Stack Pointer
 470:../../libs/CMSIS/CM3/CoreSupport/core_cm3.c ****  *
 471:../../libs/CMSIS/CM3/CoreSupport/core_cm3.c ****  * @return Main Stack Pointer
 472:../../libs/CMSIS/CM3/CoreSupport/core_cm3.c ****  *
 473:../../libs/CMSIS/CM3/CoreSupport/core_cm3.c ****  * Return the current value of the MSP (main stack pointer)
 474:../../libs/CMSIS/CM3/CoreSupport/core_cm3.c ****  * Cortex processor register
 475:../../libs/CMSIS/CM3/CoreSupport/core_cm3.c ****  */
 476:../../libs/CMSIS/CM3/CoreSupport/core_cm3.c **** uint32_t __get_MSP(void) __attribute__( ( naked ) );
 477:../../libs/CMSIS/CM3/CoreSupport/core_cm3.c **** uint32_t __get_MSP(void)
 478:../../libs/CMSIS/CM3/CoreSupport/core_cm3.c **** {
 705              		.loc 1 478 0
 706              		@ Naked Function: prologue and epilogue provided by programmer.
 707              		@ args = 0, pretend = 0, frame = 0
 708              		@ frame_needed = 1, uses_anonymous_args = 0
 479:../../libs/CMSIS/CM3/CoreSupport/core_cm3.c ****   uint32_t result=0;
 709              		.loc 1 479 0
 710 0000 4FF00004 		mov	r4, #0
 480:../../libs/CMSIS/CM3/CoreSupport/core_cm3.c **** 
 481:../../libs/CMSIS/CM3/CoreSupport/core_cm3.c ****   __ASM volatile ("MRS %0, msp\n\t" 
 711              		.loc 1 481 0
 712              	@ 481 "../../libs/CMSIS/CM3/CoreSupport/core_cm3.c" 1
 713 0004 EFF30884 		MRS r4, msp
 714 0008 2046     		MOV r0, r4 
 715 000a 7047     		BX  lr     
 716              		
 717              	@ 0 "" 2
 482:../../libs/CMSIS/CM3/CoreSupport/core_cm3.c ****                   "MOV r0, %0 \n\t"
 483:../../libs/CMSIS/CM3/CoreSupport/core_cm3.c ****                   "BX  lr     \n\t"  : "=r" (result) );
 484:../../libs/CMSIS/CM3/CoreSupport/core_cm3.c ****   return(result);
 718              		.loc 1 484 0
 719              		.thumb
 720 000c 2346     		mov	r3, r4
 485:../../libs/CMSIS/CM3/CoreSupport/core_cm3.c **** }
 721              		.loc 1 485 0
 722 000e 1846     		mov	r0, r3
 723              	.LFE2:
 724              		.size	__get_MSP, .-__get_MSP
 725              		.section	.text.__set_MSP,"ax",%progbits
 726              		.align	2
 727              		.global	__set_MSP
 728              		.thumb
 729              		.thumb_func
 730              		.type	__set_MSP, %function
 731              	__set_MSP:
 732              	.LFB3:
 486:../../libs/CMSIS/CM3/CoreSupport/core_cm3.c **** 
 487:../../libs/CMSIS/CM3/CoreSupport/core_cm3.c **** /**
 488:../../libs/CMSIS/CM3/CoreSupport/core_cm3.c ****  * @brief  Set the Main Stack Pointer
 489:../../libs/CMSIS/CM3/CoreSupport/core_cm3.c ****  *
ARM GAS  /tmp/ccr7pOni.s 			page 36


 490:../../libs/CMSIS/CM3/CoreSupport/core_cm3.c ****  * @param  topOfMainStack  Main Stack Pointer
 491:../../libs/CMSIS/CM3/CoreSupport/core_cm3.c ****  *
 492:../../libs/CMSIS/CM3/CoreSupport/core_cm3.c ****  * Assign the value mainStackPointer to the MSP 
 493:../../libs/CMSIS/CM3/CoreSupport/core_cm3.c ****  * (main stack pointer) Cortex processor register
 494:../../libs/CMSIS/CM3/CoreSupport/core_cm3.c ****  */
 495:../../libs/CMSIS/CM3/CoreSupport/core_cm3.c **** void __set_MSP(uint32_t topOfMainStack) __attribute__( ( naked ) );
 496:../../libs/CMSIS/CM3/CoreSupport/core_cm3.c **** void __set_MSP(uint32_t topOfMainStack)
 497:../../libs/CMSIS/CM3/CoreSupport/core_cm3.c **** {
 733              		.loc 1 497 0
 734              		@ Naked Function: prologue and epilogue provided by programmer.
 735              		@ args = 0, pretend = 0, frame = 0
 736              		@ frame_needed = 1, uses_anonymous_args = 0
 737 0000 0346     		mov	r3, r0
 498:../../libs/CMSIS/CM3/CoreSupport/core_cm3.c ****   __ASM volatile ("MSR msp, %0\n\t"
 738              		.loc 1 498 0
 739              	@ 498 "../../libs/CMSIS/CM3/CoreSupport/core_cm3.c" 1
 740 0002 83F30888 		MSR msp, r3
 741 0006 7047     		BX  lr     
 742              		
 743              	@ 0 "" 2
 499:../../libs/CMSIS/CM3/CoreSupport/core_cm3.c ****                   "BX  lr     \n\t" : : "r" (topOfMainStack) );
 500:../../libs/CMSIS/CM3/CoreSupport/core_cm3.c **** }
 744              		.loc 1 500 0
 745              		.thumb
 746              	.LFE3:
 747              		.size	__set_MSP, .-__set_MSP
 748              		.section	.text.__get_BASEPRI,"ax",%progbits
 749              		.align	2
 750              		.global	__get_BASEPRI
 751              		.thumb
 752              		.thumb_func
 753              		.type	__get_BASEPRI, %function
 754              	__get_BASEPRI:
 755              	.LFB4:
 501:../../libs/CMSIS/CM3/CoreSupport/core_cm3.c **** 
 502:../../libs/CMSIS/CM3/CoreSupport/core_cm3.c **** /**
 503:../../libs/CMSIS/CM3/CoreSupport/core_cm3.c ****  * @brief  Return the Base Priority value
 504:../../libs/CMSIS/CM3/CoreSupport/core_cm3.c ****  *
 505:../../libs/CMSIS/CM3/CoreSupport/core_cm3.c ****  * @return BasePriority
 506:../../libs/CMSIS/CM3/CoreSupport/core_cm3.c ****  *
 507:../../libs/CMSIS/CM3/CoreSupport/core_cm3.c ****  * Return the content of the base priority register
 508:../../libs/CMSIS/CM3/CoreSupport/core_cm3.c ****  */
 509:../../libs/CMSIS/CM3/CoreSupport/core_cm3.c **** uint32_t __get_BASEPRI(void)
 510:../../libs/CMSIS/CM3/CoreSupport/core_cm3.c **** {
 756              		.loc 1 510 0
 757              		@ args = 0, pretend = 0, frame = 8
 758              		@ frame_needed = 1, uses_anonymous_args = 0
 759              		@ link register save eliminated.
 760 0000 80B4     		push	{r7}
 761              	.LCFI0:
 762 0002 83B0     		sub	sp, sp, #12
 763              	.LCFI1:
 764 0004 00AF     		add	r7, sp, #0
 765              	.LCFI2:
 511:../../libs/CMSIS/CM3/CoreSupport/core_cm3.c ****   uint32_t result=0;
 766              		.loc 1 511 0
 767 0006 4FF00003 		mov	r3, #0
ARM GAS  /tmp/ccr7pOni.s 			page 37


 768 000a 7B60     		str	r3, [r7, #4]
 512:../../libs/CMSIS/CM3/CoreSupport/core_cm3.c ****   
 513:../../libs/CMSIS/CM3/CoreSupport/core_cm3.c ****   __ASM volatile ("MRS %0, basepri_max" : "=r" (result) );
 769              		.loc 1 513 0
 770              	@ 513 "../../libs/CMSIS/CM3/CoreSupport/core_cm3.c" 1
 771 000c EFF31283 		MRS r3, basepri_max
 772              	@ 0 "" 2
 773              		.thumb
 774 0010 7B60     		str	r3, [r7, #4]
 514:../../libs/CMSIS/CM3/CoreSupport/core_cm3.c ****   return(result);
 775              		.loc 1 514 0
 776 0012 7B68     		ldr	r3, [r7, #4]
 515:../../libs/CMSIS/CM3/CoreSupport/core_cm3.c **** }
 777              		.loc 1 515 0
 778 0014 1846     		mov	r0, r3
 779 0016 07F10C07 		add	r7, r7, #12
 780 001a BD46     		mov	sp, r7
 781 001c 80BC     		pop	{r7}
 782 001e 7047     		bx	lr
 783              	.LFE4:
 784              		.size	__get_BASEPRI, .-__get_BASEPRI
 785              		.section	.text.__set_BASEPRI,"ax",%progbits
 786              		.align	2
 787              		.global	__set_BASEPRI
 788              		.thumb
 789              		.thumb_func
 790              		.type	__set_BASEPRI, %function
 791              	__set_BASEPRI:
 792              	.LFB5:
 516:../../libs/CMSIS/CM3/CoreSupport/core_cm3.c **** 
 517:../../libs/CMSIS/CM3/CoreSupport/core_cm3.c **** /**
 518:../../libs/CMSIS/CM3/CoreSupport/core_cm3.c ****  * @brief  Set the Base Priority value
 519:../../libs/CMSIS/CM3/CoreSupport/core_cm3.c ****  *
 520:../../libs/CMSIS/CM3/CoreSupport/core_cm3.c ****  * @param  basePri  BasePriority
 521:../../libs/CMSIS/CM3/CoreSupport/core_cm3.c ****  *
 522:../../libs/CMSIS/CM3/CoreSupport/core_cm3.c ****  * Set the base priority register
 523:../../libs/CMSIS/CM3/CoreSupport/core_cm3.c ****  */
 524:../../libs/CMSIS/CM3/CoreSupport/core_cm3.c **** void __set_BASEPRI(uint32_t value)
 525:../../libs/CMSIS/CM3/CoreSupport/core_cm3.c **** {
 793              		.loc 1 525 0
 794              		@ args = 0, pretend = 0, frame = 8
 795              		@ frame_needed = 1, uses_anonymous_args = 0
 796              		@ link register save eliminated.
 797 0000 80B4     		push	{r7}
 798              	.LCFI3:
 799 0002 83B0     		sub	sp, sp, #12
 800              	.LCFI4:
 801 0004 00AF     		add	r7, sp, #0
 802              	.LCFI5:
 803 0006 7860     		str	r0, [r7, #4]
 526:../../libs/CMSIS/CM3/CoreSupport/core_cm3.c ****   __ASM volatile ("MSR basepri, %0" : : "r" (value) );
 804              		.loc 1 526 0
 805 0008 7B68     		ldr	r3, [r7, #4]
 806              	@ 526 "../../libs/CMSIS/CM3/CoreSupport/core_cm3.c" 1
 807 000a 83F31188 		MSR basepri, r3
 808              	@ 0 "" 2
 527:../../libs/CMSIS/CM3/CoreSupport/core_cm3.c **** }
ARM GAS  /tmp/ccr7pOni.s 			page 38


 809              		.loc 1 527 0
 810              		.thumb
 811 000e 07F10C07 		add	r7, r7, #12
 812 0012 BD46     		mov	sp, r7
 813 0014 80BC     		pop	{r7}
 814 0016 7047     		bx	lr
 815              	.LFE5:
 816              		.size	__set_BASEPRI, .-__set_BASEPRI
 817              		.section	.text.__get_PRIMASK,"ax",%progbits
 818              		.align	2
 819              		.global	__get_PRIMASK
 820              		.thumb
 821              		.thumb_func
 822              		.type	__get_PRIMASK, %function
 823              	__get_PRIMASK:
 824              	.LFB6:
 528:../../libs/CMSIS/CM3/CoreSupport/core_cm3.c **** 
 529:../../libs/CMSIS/CM3/CoreSupport/core_cm3.c **** /**
 530:../../libs/CMSIS/CM3/CoreSupport/core_cm3.c ****  * @brief  Return the Priority Mask value
 531:../../libs/CMSIS/CM3/CoreSupport/core_cm3.c ****  *
 532:../../libs/CMSIS/CM3/CoreSupport/core_cm3.c ****  * @return PriMask
 533:../../libs/CMSIS/CM3/CoreSupport/core_cm3.c ****  *
 534:../../libs/CMSIS/CM3/CoreSupport/core_cm3.c ****  * Return state of the priority mask bit from the priority mask register
 535:../../libs/CMSIS/CM3/CoreSupport/core_cm3.c ****  */
 536:../../libs/CMSIS/CM3/CoreSupport/core_cm3.c **** uint32_t __get_PRIMASK(void)
 537:../../libs/CMSIS/CM3/CoreSupport/core_cm3.c **** {
 825              		.loc 1 537 0
 826              		@ args = 0, pretend = 0, frame = 8
 827              		@ frame_needed = 1, uses_anonymous_args = 0
 828              		@ link register save eliminated.
 829 0000 80B4     		push	{r7}
 830              	.LCFI6:
 831 0002 83B0     		sub	sp, sp, #12
 832              	.LCFI7:
 833 0004 00AF     		add	r7, sp, #0
 834              	.LCFI8:
 538:../../libs/CMSIS/CM3/CoreSupport/core_cm3.c ****   uint32_t result=0;
 835              		.loc 1 538 0
 836 0006 4FF00003 		mov	r3, #0
 837 000a 7B60     		str	r3, [r7, #4]
 539:../../libs/CMSIS/CM3/CoreSupport/core_cm3.c **** 
 540:../../libs/CMSIS/CM3/CoreSupport/core_cm3.c ****   __ASM volatile ("MRS %0, primask" : "=r" (result) );
 838              		.loc 1 540 0
 839              	@ 540 "../../libs/CMSIS/CM3/CoreSupport/core_cm3.c" 1
 840 000c EFF31083 		MRS r3, primask
 841              	@ 0 "" 2
 842              		.thumb
 843 0010 7B60     		str	r3, [r7, #4]
 541:../../libs/CMSIS/CM3/CoreSupport/core_cm3.c ****   return(result);
 844              		.loc 1 541 0
 845 0012 7B68     		ldr	r3, [r7, #4]
 542:../../libs/CMSIS/CM3/CoreSupport/core_cm3.c **** }
 846              		.loc 1 542 0
 847 0014 1846     		mov	r0, r3
 848 0016 07F10C07 		add	r7, r7, #12
 849 001a BD46     		mov	sp, r7
 850 001c 80BC     		pop	{r7}
ARM GAS  /tmp/ccr7pOni.s 			page 39


 851 001e 7047     		bx	lr
 852              	.LFE6:
 853              		.size	__get_PRIMASK, .-__get_PRIMASK
 854              		.section	.text.__set_PRIMASK,"ax",%progbits
 855              		.align	2
 856              		.global	__set_PRIMASK
 857              		.thumb
 858              		.thumb_func
 859              		.type	__set_PRIMASK, %function
 860              	__set_PRIMASK:
 861              	.LFB7:
 543:../../libs/CMSIS/CM3/CoreSupport/core_cm3.c **** 
 544:../../libs/CMSIS/CM3/CoreSupport/core_cm3.c **** /**
 545:../../libs/CMSIS/CM3/CoreSupport/core_cm3.c ****  * @brief  Set the Priority Mask value
 546:../../libs/CMSIS/CM3/CoreSupport/core_cm3.c ****  *
 547:../../libs/CMSIS/CM3/CoreSupport/core_cm3.c ****  * @param  priMask  PriMask
 548:../../libs/CMSIS/CM3/CoreSupport/core_cm3.c ****  *
 549:../../libs/CMSIS/CM3/CoreSupport/core_cm3.c ****  * Set the priority mask bit in the priority mask register
 550:../../libs/CMSIS/CM3/CoreSupport/core_cm3.c ****  */
 551:../../libs/CMSIS/CM3/CoreSupport/core_cm3.c **** void __set_PRIMASK(uint32_t priMask)
 552:../../libs/CMSIS/CM3/CoreSupport/core_cm3.c **** {
 862              		.loc 1 552 0
 863              		@ args = 0, pretend = 0, frame = 8
 864              		@ frame_needed = 1, uses_anonymous_args = 0
 865              		@ link register save eliminated.
 866 0000 80B4     		push	{r7}
 867              	.LCFI9:
 868 0002 83B0     		sub	sp, sp, #12
 869              	.LCFI10:
 870 0004 00AF     		add	r7, sp, #0
 871              	.LCFI11:
 872 0006 7860     		str	r0, [r7, #4]
 553:../../libs/CMSIS/CM3/CoreSupport/core_cm3.c ****   __ASM volatile ("MSR primask, %0" : : "r" (priMask) );
 873              		.loc 1 553 0
 874 0008 7B68     		ldr	r3, [r7, #4]
 875              	@ 553 "../../libs/CMSIS/CM3/CoreSupport/core_cm3.c" 1
 876 000a 83F31088 		MSR primask, r3
 877              	@ 0 "" 2
 554:../../libs/CMSIS/CM3/CoreSupport/core_cm3.c **** }
 878              		.loc 1 554 0
 879              		.thumb
 880 000e 07F10C07 		add	r7, r7, #12
 881 0012 BD46     		mov	sp, r7
 882 0014 80BC     		pop	{r7}
 883 0016 7047     		bx	lr
 884              	.LFE7:
 885              		.size	__set_PRIMASK, .-__set_PRIMASK
 886              		.section	.text.__get_FAULTMASK,"ax",%progbits
 887              		.align	2
 888              		.global	__get_FAULTMASK
 889              		.thumb
 890              		.thumb_func
 891              		.type	__get_FAULTMASK, %function
 892              	__get_FAULTMASK:
 893              	.LFB8:
 555:../../libs/CMSIS/CM3/CoreSupport/core_cm3.c **** 
 556:../../libs/CMSIS/CM3/CoreSupport/core_cm3.c **** /**
ARM GAS  /tmp/ccr7pOni.s 			page 40


 557:../../libs/CMSIS/CM3/CoreSupport/core_cm3.c ****  * @brief  Return the Fault Mask value
 558:../../libs/CMSIS/CM3/CoreSupport/core_cm3.c ****  *
 559:../../libs/CMSIS/CM3/CoreSupport/core_cm3.c ****  * @return FaultMask
 560:../../libs/CMSIS/CM3/CoreSupport/core_cm3.c ****  *
 561:../../libs/CMSIS/CM3/CoreSupport/core_cm3.c ****  * Return the content of the fault mask register
 562:../../libs/CMSIS/CM3/CoreSupport/core_cm3.c ****  */
 563:../../libs/CMSIS/CM3/CoreSupport/core_cm3.c **** uint32_t __get_FAULTMASK(void)
 564:../../libs/CMSIS/CM3/CoreSupport/core_cm3.c **** {
 894              		.loc 1 564 0
 895              		@ args = 0, pretend = 0, frame = 8
 896              		@ frame_needed = 1, uses_anonymous_args = 0
 897              		@ link register save eliminated.
 898 0000 80B4     		push	{r7}
 899              	.LCFI12:
 900 0002 83B0     		sub	sp, sp, #12
 901              	.LCFI13:
 902 0004 00AF     		add	r7, sp, #0
 903              	.LCFI14:
 565:../../libs/CMSIS/CM3/CoreSupport/core_cm3.c ****   uint32_t result=0;
 904              		.loc 1 565 0
 905 0006 4FF00003 		mov	r3, #0
 906 000a 7B60     		str	r3, [r7, #4]
 566:../../libs/CMSIS/CM3/CoreSupport/core_cm3.c ****   
 567:../../libs/CMSIS/CM3/CoreSupport/core_cm3.c ****   __ASM volatile ("MRS %0, faultmask" : "=r" (result) );
 907              		.loc 1 567 0
 908              	@ 567 "../../libs/CMSIS/CM3/CoreSupport/core_cm3.c" 1
 909 000c EFF31383 		MRS r3, faultmask
 910              	@ 0 "" 2
 911              		.thumb
 912 0010 7B60     		str	r3, [r7, #4]
 568:../../libs/CMSIS/CM3/CoreSupport/core_cm3.c ****   return(result);
 913              		.loc 1 568 0
 914 0012 7B68     		ldr	r3, [r7, #4]
 569:../../libs/CMSIS/CM3/CoreSupport/core_cm3.c **** }
 915              		.loc 1 569 0
 916 0014 1846     		mov	r0, r3
 917 0016 07F10C07 		add	r7, r7, #12
 918 001a BD46     		mov	sp, r7
 919 001c 80BC     		pop	{r7}
 920 001e 7047     		bx	lr
 921              	.LFE8:
 922              		.size	__get_FAULTMASK, .-__get_FAULTMASK
 923              		.section	.text.__set_FAULTMASK,"ax",%progbits
 924              		.align	2
 925              		.global	__set_FAULTMASK
 926              		.thumb
 927              		.thumb_func
 928              		.type	__set_FAULTMASK, %function
 929              	__set_FAULTMASK:
 930              	.LFB9:
 570:../../libs/CMSIS/CM3/CoreSupport/core_cm3.c **** 
 571:../../libs/CMSIS/CM3/CoreSupport/core_cm3.c **** /**
 572:../../libs/CMSIS/CM3/CoreSupport/core_cm3.c ****  * @brief  Set the Fault Mask value
 573:../../libs/CMSIS/CM3/CoreSupport/core_cm3.c ****  *
 574:../../libs/CMSIS/CM3/CoreSupport/core_cm3.c ****  * @param  faultMask  faultMask value
 575:../../libs/CMSIS/CM3/CoreSupport/core_cm3.c ****  *
 576:../../libs/CMSIS/CM3/CoreSupport/core_cm3.c ****  * Set the fault mask register
ARM GAS  /tmp/ccr7pOni.s 			page 41


 577:../../libs/CMSIS/CM3/CoreSupport/core_cm3.c ****  */
 578:../../libs/CMSIS/CM3/CoreSupport/core_cm3.c **** void __set_FAULTMASK(uint32_t faultMask)
 579:../../libs/CMSIS/CM3/CoreSupport/core_cm3.c **** {
 931              		.loc 1 579 0
 932              		@ args = 0, pretend = 0, frame = 8
 933              		@ frame_needed = 1, uses_anonymous_args = 0
 934              		@ link register save eliminated.
 935 0000 80B4     		push	{r7}
 936              	.LCFI15:
 937 0002 83B0     		sub	sp, sp, #12
 938              	.LCFI16:
 939 0004 00AF     		add	r7, sp, #0
 940              	.LCFI17:
 941 0006 7860     		str	r0, [r7, #4]
 580:../../libs/CMSIS/CM3/CoreSupport/core_cm3.c ****   __ASM volatile ("MSR faultmask, %0" : : "r" (faultMask) );
 942              		.loc 1 580 0
 943 0008 7B68     		ldr	r3, [r7, #4]
 944              	@ 580 "../../libs/CMSIS/CM3/CoreSupport/core_cm3.c" 1
 945 000a 83F31388 		MSR faultmask, r3
 946              	@ 0 "" 2
 581:../../libs/CMSIS/CM3/CoreSupport/core_cm3.c **** }
 947              		.loc 1 581 0
 948              		.thumb
 949 000e 07F10C07 		add	r7, r7, #12
 950 0012 BD46     		mov	sp, r7
 951 0014 80BC     		pop	{r7}
 952 0016 7047     		bx	lr
 953              	.LFE9:
 954              		.size	__set_FAULTMASK, .-__set_FAULTMASK
 955              		.section	.text.__get_CONTROL,"ax",%progbits
 956              		.align	2
 957              		.global	__get_CONTROL
 958              		.thumb
 959              		.thumb_func
 960              		.type	__get_CONTROL, %function
 961              	__get_CONTROL:
 962              	.LFB10:
 582:../../libs/CMSIS/CM3/CoreSupport/core_cm3.c **** 
 583:../../libs/CMSIS/CM3/CoreSupport/core_cm3.c **** /**
 584:../../libs/CMSIS/CM3/CoreSupport/core_cm3.c ****  * @brief  Return the Control Register value
 585:../../libs/CMSIS/CM3/CoreSupport/core_cm3.c **** * 
 586:../../libs/CMSIS/CM3/CoreSupport/core_cm3.c **** *  @return Control value
 587:../../libs/CMSIS/CM3/CoreSupport/core_cm3.c ****  *
 588:../../libs/CMSIS/CM3/CoreSupport/core_cm3.c ****  * Return the content of the control register
 589:../../libs/CMSIS/CM3/CoreSupport/core_cm3.c ****  */
 590:../../libs/CMSIS/CM3/CoreSupport/core_cm3.c **** uint32_t __get_CONTROL(void)
 591:../../libs/CMSIS/CM3/CoreSupport/core_cm3.c **** {
 963              		.loc 1 591 0
 964              		@ args = 0, pretend = 0, frame = 8
 965              		@ frame_needed = 1, uses_anonymous_args = 0
 966              		@ link register save eliminated.
 967 0000 80B4     		push	{r7}
 968              	.LCFI18:
 969 0002 83B0     		sub	sp, sp, #12
 970              	.LCFI19:
 971 0004 00AF     		add	r7, sp, #0
 972              	.LCFI20:
ARM GAS  /tmp/ccr7pOni.s 			page 42


 592:../../libs/CMSIS/CM3/CoreSupport/core_cm3.c ****   uint32_t result=0;
 973              		.loc 1 592 0
 974 0006 4FF00003 		mov	r3, #0
 975 000a 7B60     		str	r3, [r7, #4]
 593:../../libs/CMSIS/CM3/CoreSupport/core_cm3.c **** 
 594:../../libs/CMSIS/CM3/CoreSupport/core_cm3.c ****   __ASM volatile ("MRS %0, control" : "=r" (result) );
 976              		.loc 1 594 0
 977              	@ 594 "../../libs/CMSIS/CM3/CoreSupport/core_cm3.c" 1
 978 000c EFF31483 		MRS r3, control
 979              	@ 0 "" 2
 980              		.thumb
 981 0010 7B60     		str	r3, [r7, #4]
 595:../../libs/CMSIS/CM3/CoreSupport/core_cm3.c ****   return(result);
 982              		.loc 1 595 0
 983 0012 7B68     		ldr	r3, [r7, #4]
 596:../../libs/CMSIS/CM3/CoreSupport/core_cm3.c **** }
 984              		.loc 1 596 0
 985 0014 1846     		mov	r0, r3
 986 0016 07F10C07 		add	r7, r7, #12
 987 001a BD46     		mov	sp, r7
 988 001c 80BC     		pop	{r7}
 989 001e 7047     		bx	lr
 990              	.LFE10:
 991              		.size	__get_CONTROL, .-__get_CONTROL
 992              		.section	.text.__set_CONTROL,"ax",%progbits
 993              		.align	2
 994              		.global	__set_CONTROL
 995              		.thumb
 996              		.thumb_func
 997              		.type	__set_CONTROL, %function
 998              	__set_CONTROL:
 999              	.LFB11:
 597:../../libs/CMSIS/CM3/CoreSupport/core_cm3.c **** 
 598:../../libs/CMSIS/CM3/CoreSupport/core_cm3.c **** /**
 599:../../libs/CMSIS/CM3/CoreSupport/core_cm3.c ****  * @brief  Set the Control Register value
 600:../../libs/CMSIS/CM3/CoreSupport/core_cm3.c ****  *
 601:../../libs/CMSIS/CM3/CoreSupport/core_cm3.c ****  * @param  control  Control value
 602:../../libs/CMSIS/CM3/CoreSupport/core_cm3.c ****  *
 603:../../libs/CMSIS/CM3/CoreSupport/core_cm3.c ****  * Set the control register
 604:../../libs/CMSIS/CM3/CoreSupport/core_cm3.c ****  */
 605:../../libs/CMSIS/CM3/CoreSupport/core_cm3.c **** void __set_CONTROL(uint32_t control)
 606:../../libs/CMSIS/CM3/CoreSupport/core_cm3.c **** {
 1000              		.loc 1 606 0
 1001              		@ args = 0, pretend = 0, frame = 8
 1002              		@ frame_needed = 1, uses_anonymous_args = 0
 1003              		@ link register save eliminated.
 1004 0000 80B4     		push	{r7}
 1005              	.LCFI21:
 1006 0002 83B0     		sub	sp, sp, #12
 1007              	.LCFI22:
 1008 0004 00AF     		add	r7, sp, #0
 1009              	.LCFI23:
 1010 0006 7860     		str	r0, [r7, #4]
 607:../../libs/CMSIS/CM3/CoreSupport/core_cm3.c ****   __ASM volatile ("MSR control, %0" : : "r" (control) );
 1011              		.loc 1 607 0
 1012 0008 7B68     		ldr	r3, [r7, #4]
 1013              	@ 607 "../../libs/CMSIS/CM3/CoreSupport/core_cm3.c" 1
ARM GAS  /tmp/ccr7pOni.s 			page 43


 1014 000a 83F31488 		MSR control, r3
 1015              	@ 0 "" 2
 608:../../libs/CMSIS/CM3/CoreSupport/core_cm3.c **** }
 1016              		.loc 1 608 0
 1017              		.thumb
 1018 000e 07F10C07 		add	r7, r7, #12
 1019 0012 BD46     		mov	sp, r7
 1020 0014 80BC     		pop	{r7}
 1021 0016 7047     		bx	lr
 1022              	.LFE11:
 1023              		.size	__set_CONTROL, .-__set_CONTROL
 1024              		.section	.text.__REV,"ax",%progbits
 1025              		.align	2
 1026              		.global	__REV
 1027              		.thumb
 1028              		.thumb_func
 1029              		.type	__REV, %function
 1030              	__REV:
 1031              	.LFB12:
 609:../../libs/CMSIS/CM3/CoreSupport/core_cm3.c **** 
 610:../../libs/CMSIS/CM3/CoreSupport/core_cm3.c **** 
 611:../../libs/CMSIS/CM3/CoreSupport/core_cm3.c **** /**
 612:../../libs/CMSIS/CM3/CoreSupport/core_cm3.c ****  * @brief  Reverse byte order in integer value
 613:../../libs/CMSIS/CM3/CoreSupport/core_cm3.c ****  *
 614:../../libs/CMSIS/CM3/CoreSupport/core_cm3.c ****  * @param  value  value to reverse
 615:../../libs/CMSIS/CM3/CoreSupport/core_cm3.c ****  * @return        reversed value
 616:../../libs/CMSIS/CM3/CoreSupport/core_cm3.c ****  *
 617:../../libs/CMSIS/CM3/CoreSupport/core_cm3.c ****  * Reverse byte order in integer value
 618:../../libs/CMSIS/CM3/CoreSupport/core_cm3.c ****  */
 619:../../libs/CMSIS/CM3/CoreSupport/core_cm3.c **** uint32_t __REV(uint32_t value)
 620:../../libs/CMSIS/CM3/CoreSupport/core_cm3.c **** {
 1032              		.loc 1 620 0
 1033              		@ args = 0, pretend = 0, frame = 16
 1034              		@ frame_needed = 1, uses_anonymous_args = 0
 1035              		@ link register save eliminated.
 1036 0000 80B4     		push	{r7}
 1037              	.LCFI24:
 1038 0002 85B0     		sub	sp, sp, #20
 1039              	.LCFI25:
 1040 0004 00AF     		add	r7, sp, #0
 1041              	.LCFI26:
 1042 0006 7860     		str	r0, [r7, #4]
 621:../../libs/CMSIS/CM3/CoreSupport/core_cm3.c ****   uint32_t result=0;
 1043              		.loc 1 621 0
 1044 0008 4FF00003 		mov	r3, #0
 1045 000c FB60     		str	r3, [r7, #12]
 622:../../libs/CMSIS/CM3/CoreSupport/core_cm3.c ****   
 623:../../libs/CMSIS/CM3/CoreSupport/core_cm3.c ****   __ASM volatile ("rev %0, %1" : "=r" (result) : "r" (value) );
 1046              		.loc 1 623 0
 1047 000e 7B68     		ldr	r3, [r7, #4]
 1048              	@ 623 "../../libs/CMSIS/CM3/CoreSupport/core_cm3.c" 1
 1049 0010 1BBA     		rev r3, r3
 1050              	@ 0 "" 2
 1051              		.thumb
 1052 0012 FB60     		str	r3, [r7, #12]
 624:../../libs/CMSIS/CM3/CoreSupport/core_cm3.c ****   return(result);
 1053              		.loc 1 624 0
ARM GAS  /tmp/ccr7pOni.s 			page 44


 1054 0014 FB68     		ldr	r3, [r7, #12]
 625:../../libs/CMSIS/CM3/CoreSupport/core_cm3.c **** }
 1055              		.loc 1 625 0
 1056 0016 1846     		mov	r0, r3
 1057 0018 07F11407 		add	r7, r7, #20
 1058 001c BD46     		mov	sp, r7
 1059 001e 80BC     		pop	{r7}
 1060 0020 7047     		bx	lr
 1061              	.LFE12:
 1062              		.size	__REV, .-__REV
 1063 0022 00BF     		.section	.text.__REV16,"ax",%progbits
 1064              		.align	2
 1065              		.global	__REV16
 1066              		.thumb
 1067              		.thumb_func
 1068              		.type	__REV16, %function
 1069              	__REV16:
 1070              	.LFB13:
 626:../../libs/CMSIS/CM3/CoreSupport/core_cm3.c **** 
 627:../../libs/CMSIS/CM3/CoreSupport/core_cm3.c **** /**
 628:../../libs/CMSIS/CM3/CoreSupport/core_cm3.c ****  * @brief  Reverse byte order in unsigned short value
 629:../../libs/CMSIS/CM3/CoreSupport/core_cm3.c ****  *
 630:../../libs/CMSIS/CM3/CoreSupport/core_cm3.c ****  * @param  value  value to reverse
 631:../../libs/CMSIS/CM3/CoreSupport/core_cm3.c ****  * @return        reversed value
 632:../../libs/CMSIS/CM3/CoreSupport/core_cm3.c ****  *
 633:../../libs/CMSIS/CM3/CoreSupport/core_cm3.c ****  * Reverse byte order in unsigned short value
 634:../../libs/CMSIS/CM3/CoreSupport/core_cm3.c ****  */
 635:../../libs/CMSIS/CM3/CoreSupport/core_cm3.c **** uint32_t __REV16(uint16_t value)
 636:../../libs/CMSIS/CM3/CoreSupport/core_cm3.c **** {
 1071              		.loc 1 636 0
 1072              		@ args = 0, pretend = 0, frame = 16
 1073              		@ frame_needed = 1, uses_anonymous_args = 0
 1074              		@ link register save eliminated.
 1075 0000 80B4     		push	{r7}
 1076              	.LCFI27:
 1077 0002 85B0     		sub	sp, sp, #20
 1078              	.LCFI28:
 1079 0004 00AF     		add	r7, sp, #0
 1080              	.LCFI29:
 1081 0006 0346     		mov	r3, r0
 1082 0008 FB80     		strh	r3, [r7, #6]	@ movhi
 637:../../libs/CMSIS/CM3/CoreSupport/core_cm3.c ****   uint32_t result=0;
 1083              		.loc 1 637 0
 1084 000a 4FF00003 		mov	r3, #0
 1085 000e FB60     		str	r3, [r7, #12]
 638:../../libs/CMSIS/CM3/CoreSupport/core_cm3.c ****   
 639:../../libs/CMSIS/CM3/CoreSupport/core_cm3.c ****   __ASM volatile ("rev16 %0, %1" : "=r" (result) : "r" (value) );
 1086              		.loc 1 639 0
 1087 0010 FB88     		ldrh	r3, [r7, #6]	@ movhi
 1088              	@ 639 "../../libs/CMSIS/CM3/CoreSupport/core_cm3.c" 1
 1089 0012 5BBA     		rev16 r3, r3
 1090              	@ 0 "" 2
 1091              		.thumb
 1092 0014 FB60     		str	r3, [r7, #12]
 640:../../libs/CMSIS/CM3/CoreSupport/core_cm3.c ****   return(result);
 1093              		.loc 1 640 0
 1094 0016 FB68     		ldr	r3, [r7, #12]
ARM GAS  /tmp/ccr7pOni.s 			page 45


 641:../../libs/CMSIS/CM3/CoreSupport/core_cm3.c **** }
 1095              		.loc 1 641 0
 1096 0018 1846     		mov	r0, r3
 1097 001a 07F11407 		add	r7, r7, #20
 1098 001e BD46     		mov	sp, r7
 1099 0020 80BC     		pop	{r7}
 1100 0022 7047     		bx	lr
 1101              	.LFE13:
 1102              		.size	__REV16, .-__REV16
 1103              		.section	.text.__REVSH,"ax",%progbits
 1104              		.align	2
 1105              		.global	__REVSH
 1106              		.thumb
 1107              		.thumb_func
 1108              		.type	__REVSH, %function
 1109              	__REVSH:
 1110              	.LFB14:
 642:../../libs/CMSIS/CM3/CoreSupport/core_cm3.c **** 
 643:../../libs/CMSIS/CM3/CoreSupport/core_cm3.c **** /**
 644:../../libs/CMSIS/CM3/CoreSupport/core_cm3.c ****  * @brief  Reverse byte order in signed short value with sign extension to integer
 645:../../libs/CMSIS/CM3/CoreSupport/core_cm3.c ****  *
 646:../../libs/CMSIS/CM3/CoreSupport/core_cm3.c ****  * @param  value  value to reverse
 647:../../libs/CMSIS/CM3/CoreSupport/core_cm3.c ****  * @return        reversed value
 648:../../libs/CMSIS/CM3/CoreSupport/core_cm3.c ****  *
 649:../../libs/CMSIS/CM3/CoreSupport/core_cm3.c ****  * Reverse byte order in signed short value with sign extension to integer
 650:../../libs/CMSIS/CM3/CoreSupport/core_cm3.c ****  */
 651:../../libs/CMSIS/CM3/CoreSupport/core_cm3.c **** int32_t __REVSH(int16_t value)
 652:../../libs/CMSIS/CM3/CoreSupport/core_cm3.c **** {
 1111              		.loc 1 652 0
 1112              		@ args = 0, pretend = 0, frame = 16
 1113              		@ frame_needed = 1, uses_anonymous_args = 0
 1114              		@ link register save eliminated.
 1115 0000 80B4     		push	{r7}
 1116              	.LCFI30:
 1117 0002 85B0     		sub	sp, sp, #20
 1118              	.LCFI31:
 1119 0004 00AF     		add	r7, sp, #0
 1120              	.LCFI32:
 1121 0006 0346     		mov	r3, r0
 1122 0008 FB80     		strh	r3, [r7, #6]	@ movhi
 653:../../libs/CMSIS/CM3/CoreSupport/core_cm3.c ****   uint32_t result=0;
 1123              		.loc 1 653 0
 1124 000a 4FF00003 		mov	r3, #0
 1125 000e FB60     		str	r3, [r7, #12]
 654:../../libs/CMSIS/CM3/CoreSupport/core_cm3.c ****   
 655:../../libs/CMSIS/CM3/CoreSupport/core_cm3.c ****   __ASM volatile ("revsh %0, %1" : "=r" (result) : "r" (value) );
 1126              		.loc 1 655 0
 1127 0010 FB88     		ldrh	r3, [r7, #6]	@ movhi
 1128              	@ 655 "../../libs/CMSIS/CM3/CoreSupport/core_cm3.c" 1
 1129 0012 DBBA     		revsh r3, r3
 1130              	@ 0 "" 2
 1131              		.thumb
 1132 0014 FB60     		str	r3, [r7, #12]
 656:../../libs/CMSIS/CM3/CoreSupport/core_cm3.c ****   return(result);
 1133              		.loc 1 656 0
 1134 0016 FB68     		ldr	r3, [r7, #12]
 657:../../libs/CMSIS/CM3/CoreSupport/core_cm3.c **** }
ARM GAS  /tmp/ccr7pOni.s 			page 46


 1135              		.loc 1 657 0
 1136 0018 1846     		mov	r0, r3
 1137 001a 07F11407 		add	r7, r7, #20
 1138 001e BD46     		mov	sp, r7
 1139 0020 80BC     		pop	{r7}
 1140 0022 7047     		bx	lr
 1141              	.LFE14:
 1142              		.size	__REVSH, .-__REVSH
 1143              		.section	.text.__RBIT,"ax",%progbits
 1144              		.align	2
 1145              		.global	__RBIT
 1146              		.thumb
 1147              		.thumb_func
 1148              		.type	__RBIT, %function
 1149              	__RBIT:
 1150              	.LFB15:
 658:../../libs/CMSIS/CM3/CoreSupport/core_cm3.c **** 
 659:../../libs/CMSIS/CM3/CoreSupport/core_cm3.c **** /**
 660:../../libs/CMSIS/CM3/CoreSupport/core_cm3.c ****  * @brief  Reverse bit order of value
 661:../../libs/CMSIS/CM3/CoreSupport/core_cm3.c ****  *
 662:../../libs/CMSIS/CM3/CoreSupport/core_cm3.c ****  * @param  value  value to reverse
 663:../../libs/CMSIS/CM3/CoreSupport/core_cm3.c ****  * @return        reversed value
 664:../../libs/CMSIS/CM3/CoreSupport/core_cm3.c ****  *
 665:../../libs/CMSIS/CM3/CoreSupport/core_cm3.c ****  * Reverse bit order of value
 666:../../libs/CMSIS/CM3/CoreSupport/core_cm3.c ****  */
 667:../../libs/CMSIS/CM3/CoreSupport/core_cm3.c **** uint32_t __RBIT(uint32_t value)
 668:../../libs/CMSIS/CM3/CoreSupport/core_cm3.c **** {
 1151              		.loc 1 668 0
 1152              		@ args = 0, pretend = 0, frame = 16
 1153              		@ frame_needed = 1, uses_anonymous_args = 0
 1154              		@ link register save eliminated.
 1155 0000 80B4     		push	{r7}
 1156              	.LCFI33:
 1157 0002 85B0     		sub	sp, sp, #20
 1158              	.LCFI34:
 1159 0004 00AF     		add	r7, sp, #0
 1160              	.LCFI35:
 1161 0006 7860     		str	r0, [r7, #4]
 669:../../libs/CMSIS/CM3/CoreSupport/core_cm3.c ****   uint32_t result=0;
 1162              		.loc 1 669 0
 1163 0008 4FF00003 		mov	r3, #0
 1164 000c FB60     		str	r3, [r7, #12]
 670:../../libs/CMSIS/CM3/CoreSupport/core_cm3.c ****   
 671:../../libs/CMSIS/CM3/CoreSupport/core_cm3.c ****    __ASM volatile ("rbit %0, %1" : "=r" (result) : "r" (value) );
 1165              		.loc 1 671 0
 1166 000e 7B68     		ldr	r3, [r7, #4]
 1167              	@ 671 "../../libs/CMSIS/CM3/CoreSupport/core_cm3.c" 1
 1168 0010 93FAA3F3 		rbit r3, r3
 1169              	@ 0 "" 2
 1170              		.thumb
 1171 0014 FB60     		str	r3, [r7, #12]
 672:../../libs/CMSIS/CM3/CoreSupport/core_cm3.c ****    return(result);
 1172              		.loc 1 672 0
 1173 0016 FB68     		ldr	r3, [r7, #12]
 673:../../libs/CMSIS/CM3/CoreSupport/core_cm3.c **** }
 1174              		.loc 1 673 0
 1175 0018 1846     		mov	r0, r3
ARM GAS  /tmp/ccr7pOni.s 			page 47


 1176 001a 07F11407 		add	r7, r7, #20
 1177 001e BD46     		mov	sp, r7
 1178 0020 80BC     		pop	{r7}
 1179 0022 7047     		bx	lr
 1180              	.LFE15:
 1181              		.size	__RBIT, .-__RBIT
 1182              		.section	.text.__LDREXB,"ax",%progbits
 1183              		.align	2
 1184              		.global	__LDREXB
 1185              		.thumb
 1186              		.thumb_func
 1187              		.type	__LDREXB, %function
 1188              	__LDREXB:
 1189              	.LFB16:
 674:../../libs/CMSIS/CM3/CoreSupport/core_cm3.c **** 
 675:../../libs/CMSIS/CM3/CoreSupport/core_cm3.c **** /**
 676:../../libs/CMSIS/CM3/CoreSupport/core_cm3.c ****  * @brief  LDR Exclusive (8 bit)
 677:../../libs/CMSIS/CM3/CoreSupport/core_cm3.c ****  *
 678:../../libs/CMSIS/CM3/CoreSupport/core_cm3.c ****  * @param  *addr  address pointer
 679:../../libs/CMSIS/CM3/CoreSupport/core_cm3.c ****  * @return        value of (*address)
 680:../../libs/CMSIS/CM3/CoreSupport/core_cm3.c ****  *
 681:../../libs/CMSIS/CM3/CoreSupport/core_cm3.c ****  * Exclusive LDR command for 8 bit value
 682:../../libs/CMSIS/CM3/CoreSupport/core_cm3.c ****  */
 683:../../libs/CMSIS/CM3/CoreSupport/core_cm3.c **** uint8_t __LDREXB(uint8_t *addr)
 684:../../libs/CMSIS/CM3/CoreSupport/core_cm3.c **** {
 1190              		.loc 1 684 0
 1191              		@ args = 0, pretend = 0, frame = 16
 1192              		@ frame_needed = 1, uses_anonymous_args = 0
 1193              		@ link register save eliminated.
 1194 0000 80B4     		push	{r7}
 1195              	.LCFI36:
 1196 0002 85B0     		sub	sp, sp, #20
 1197              	.LCFI37:
 1198 0004 00AF     		add	r7, sp, #0
 1199              	.LCFI38:
 1200 0006 7860     		str	r0, [r7, #4]
 685:../../libs/CMSIS/CM3/CoreSupport/core_cm3.c ****     uint8_t result=0;
 1201              		.loc 1 685 0
 1202 0008 4FF00003 		mov	r3, #0
 1203 000c FB73     		strb	r3, [r7, #15]
 686:../../libs/CMSIS/CM3/CoreSupport/core_cm3.c ****   
 687:../../libs/CMSIS/CM3/CoreSupport/core_cm3.c ****    __ASM volatile ("ldrexb %0, [%1]" : "=r" (result) : "r" (addr) );
 1204              		.loc 1 687 0
 1205 000e 7B68     		ldr	r3, [r7, #4]
 1206              	@ 687 "../../libs/CMSIS/CM3/CoreSupport/core_cm3.c" 1
 1207 0010 D3E84F3F 		ldrexb r3, [r3]
 1208              	@ 0 "" 2
 1209              		.thumb
 1210 0014 FB73     		strb	r3, [r7, #15]
 688:../../libs/CMSIS/CM3/CoreSupport/core_cm3.c ****    return(result);
 1211              		.loc 1 688 0
 1212 0016 FB7B     		ldrb	r3, [r7, #15]	@ zero_extendqisi2
 689:../../libs/CMSIS/CM3/CoreSupport/core_cm3.c **** }
 1213              		.loc 1 689 0
 1214 0018 1846     		mov	r0, r3
 1215 001a 07F11407 		add	r7, r7, #20
 1216 001e BD46     		mov	sp, r7
ARM GAS  /tmp/ccr7pOni.s 			page 48


 1217 0020 80BC     		pop	{r7}
 1218 0022 7047     		bx	lr
 1219              	.LFE16:
 1220              		.size	__LDREXB, .-__LDREXB
 1221              		.section	.text.__LDREXH,"ax",%progbits
 1222              		.align	2
 1223              		.global	__LDREXH
 1224              		.thumb
 1225              		.thumb_func
 1226              		.type	__LDREXH, %function
 1227              	__LDREXH:
 1228              	.LFB17:
 690:../../libs/CMSIS/CM3/CoreSupport/core_cm3.c **** 
 691:../../libs/CMSIS/CM3/CoreSupport/core_cm3.c **** /**
 692:../../libs/CMSIS/CM3/CoreSupport/core_cm3.c ****  * @brief  LDR Exclusive (16 bit)
 693:../../libs/CMSIS/CM3/CoreSupport/core_cm3.c ****  *
 694:../../libs/CMSIS/CM3/CoreSupport/core_cm3.c ****  * @param  *addr  address pointer
 695:../../libs/CMSIS/CM3/CoreSupport/core_cm3.c ****  * @return        value of (*address)
 696:../../libs/CMSIS/CM3/CoreSupport/core_cm3.c ****  *
 697:../../libs/CMSIS/CM3/CoreSupport/core_cm3.c ****  * Exclusive LDR command for 16 bit values
 698:../../libs/CMSIS/CM3/CoreSupport/core_cm3.c ****  */
 699:../../libs/CMSIS/CM3/CoreSupport/core_cm3.c **** uint16_t __LDREXH(uint16_t *addr)
 700:../../libs/CMSIS/CM3/CoreSupport/core_cm3.c **** {
 1229              		.loc 1 700 0
 1230              		@ args = 0, pretend = 0, frame = 16
 1231              		@ frame_needed = 1, uses_anonymous_args = 0
 1232              		@ link register save eliminated.
 1233 0000 80B4     		push	{r7}
 1234              	.LCFI39:
 1235 0002 85B0     		sub	sp, sp, #20
 1236              	.LCFI40:
 1237 0004 00AF     		add	r7, sp, #0
 1238              	.LCFI41:
 1239 0006 7860     		str	r0, [r7, #4]
 701:../../libs/CMSIS/CM3/CoreSupport/core_cm3.c ****     uint16_t result=0;
 1240              		.loc 1 701 0
 1241 0008 4FF00003 		mov	r3, #0
 1242 000c FB81     		strh	r3, [r7, #14]	@ movhi
 702:../../libs/CMSIS/CM3/CoreSupport/core_cm3.c ****   
 703:../../libs/CMSIS/CM3/CoreSupport/core_cm3.c ****    __ASM volatile ("ldrexh %0, [%1]" : "=r" (result) : "r" (addr) );
 1243              		.loc 1 703 0
 1244 000e 7B68     		ldr	r3, [r7, #4]
 1245              	@ 703 "../../libs/CMSIS/CM3/CoreSupport/core_cm3.c" 1
 1246 0010 D3E85F3F 		ldrexh r3, [r3]
 1247              	@ 0 "" 2
 1248              		.thumb
 1249 0014 FB81     		strh	r3, [r7, #14]	@ movhi
 704:../../libs/CMSIS/CM3/CoreSupport/core_cm3.c ****    return(result);
 1250              		.loc 1 704 0
 1251 0016 FB89     		ldrh	r3, [r7, #14]
 705:../../libs/CMSIS/CM3/CoreSupport/core_cm3.c **** }
 1252              		.loc 1 705 0
 1253 0018 1846     		mov	r0, r3
 1254 001a 07F11407 		add	r7, r7, #20
 1255 001e BD46     		mov	sp, r7
 1256 0020 80BC     		pop	{r7}
 1257 0022 7047     		bx	lr
ARM GAS  /tmp/ccr7pOni.s 			page 49


 1258              	.LFE17:
 1259              		.size	__LDREXH, .-__LDREXH
 1260              		.section	.text.__LDREXW,"ax",%progbits
 1261              		.align	2
 1262              		.global	__LDREXW
 1263              		.thumb
 1264              		.thumb_func
 1265              		.type	__LDREXW, %function
 1266              	__LDREXW:
 1267              	.LFB18:
 706:../../libs/CMSIS/CM3/CoreSupport/core_cm3.c **** 
 707:../../libs/CMSIS/CM3/CoreSupport/core_cm3.c **** /**
 708:../../libs/CMSIS/CM3/CoreSupport/core_cm3.c ****  * @brief  LDR Exclusive (32 bit)
 709:../../libs/CMSIS/CM3/CoreSupport/core_cm3.c ****  *
 710:../../libs/CMSIS/CM3/CoreSupport/core_cm3.c ****  * @param  *addr  address pointer
 711:../../libs/CMSIS/CM3/CoreSupport/core_cm3.c ****  * @return        value of (*address)
 712:../../libs/CMSIS/CM3/CoreSupport/core_cm3.c ****  *
 713:../../libs/CMSIS/CM3/CoreSupport/core_cm3.c ****  * Exclusive LDR command for 32 bit values
 714:../../libs/CMSIS/CM3/CoreSupport/core_cm3.c ****  */
 715:../../libs/CMSIS/CM3/CoreSupport/core_cm3.c **** uint32_t __LDREXW(uint32_t *addr)
 716:../../libs/CMSIS/CM3/CoreSupport/core_cm3.c **** {
 1268              		.loc 1 716 0
 1269              		@ args = 0, pretend = 0, frame = 16
 1270              		@ frame_needed = 1, uses_anonymous_args = 0
 1271              		@ link register save eliminated.
 1272 0000 80B4     		push	{r7}
 1273              	.LCFI42:
 1274 0002 85B0     		sub	sp, sp, #20
 1275              	.LCFI43:
 1276 0004 00AF     		add	r7, sp, #0
 1277              	.LCFI44:
 1278 0006 7860     		str	r0, [r7, #4]
 717:../../libs/CMSIS/CM3/CoreSupport/core_cm3.c ****     uint32_t result=0;
 1279              		.loc 1 717 0
 1280 0008 4FF00003 		mov	r3, #0
 1281 000c FB60     		str	r3, [r7, #12]
 718:../../libs/CMSIS/CM3/CoreSupport/core_cm3.c ****   
 719:../../libs/CMSIS/CM3/CoreSupport/core_cm3.c ****    __ASM volatile ("ldrex %0, [%1]" : "=r" (result) : "r" (addr) );
 1282              		.loc 1 719 0
 1283 000e 7B68     		ldr	r3, [r7, #4]
 1284              	@ 719 "../../libs/CMSIS/CM3/CoreSupport/core_cm3.c" 1
 1285 0010 53E8003F 		ldrex r3, [r3]
 1286              	@ 0 "" 2
 1287              		.thumb
 1288 0014 FB60     		str	r3, [r7, #12]
 720:../../libs/CMSIS/CM3/CoreSupport/core_cm3.c ****    return(result);
 1289              		.loc 1 720 0
 1290 0016 FB68     		ldr	r3, [r7, #12]
 721:../../libs/CMSIS/CM3/CoreSupport/core_cm3.c **** }
 1291              		.loc 1 721 0
 1292 0018 1846     		mov	r0, r3
 1293 001a 07F11407 		add	r7, r7, #20
 1294 001e BD46     		mov	sp, r7
 1295 0020 80BC     		pop	{r7}
 1296 0022 7047     		bx	lr
 1297              	.LFE18:
 1298              		.size	__LDREXW, .-__LDREXW
ARM GAS  /tmp/ccr7pOni.s 			page 50


 1299              		.section	.text.__STREXB,"ax",%progbits
 1300              		.align	2
 1301              		.global	__STREXB
 1302              		.thumb
 1303              		.thumb_func
 1304              		.type	__STREXB, %function
 1305              	__STREXB:
 1306              	.LFB19:
 722:../../libs/CMSIS/CM3/CoreSupport/core_cm3.c **** 
 723:../../libs/CMSIS/CM3/CoreSupport/core_cm3.c **** /**
 724:../../libs/CMSIS/CM3/CoreSupport/core_cm3.c ****  * @brief  STR Exclusive (8 bit)
 725:../../libs/CMSIS/CM3/CoreSupport/core_cm3.c ****  *
 726:../../libs/CMSIS/CM3/CoreSupport/core_cm3.c ****  * @param  value  value to store
 727:../../libs/CMSIS/CM3/CoreSupport/core_cm3.c ****  * @param  *addr  address pointer
 728:../../libs/CMSIS/CM3/CoreSupport/core_cm3.c ****  * @return        successful / failed
 729:../../libs/CMSIS/CM3/CoreSupport/core_cm3.c ****  *
 730:../../libs/CMSIS/CM3/CoreSupport/core_cm3.c ****  * Exclusive STR command for 8 bit values
 731:../../libs/CMSIS/CM3/CoreSupport/core_cm3.c ****  */
 732:../../libs/CMSIS/CM3/CoreSupport/core_cm3.c **** uint32_t __STREXB(uint8_t value, uint8_t *addr)
 733:../../libs/CMSIS/CM3/CoreSupport/core_cm3.c **** {
 1307              		.loc 1 733 0
 1308              		@ args = 0, pretend = 0, frame = 16
 1309              		@ frame_needed = 1, uses_anonymous_args = 0
 1310              		@ link register save eliminated.
 1311 0000 80B4     		push	{r7}
 1312              	.LCFI45:
 1313 0002 85B0     		sub	sp, sp, #20
 1314              	.LCFI46:
 1315 0004 00AF     		add	r7, sp, #0
 1316              	.LCFI47:
 1317 0006 0346     		mov	r3, r0
 1318 0008 3960     		str	r1, [r7, #0]
 1319 000a FB71     		strb	r3, [r7, #7]
 734:../../libs/CMSIS/CM3/CoreSupport/core_cm3.c ****    uint32_t result=0;
 1320              		.loc 1 734 0
 1321 000c 4FF00003 		mov	r3, #0
 1322 0010 FB60     		str	r3, [r7, #12]
 735:../../libs/CMSIS/CM3/CoreSupport/core_cm3.c ****   
 736:../../libs/CMSIS/CM3/CoreSupport/core_cm3.c ****    __ASM volatile ("strexb %0, %2, [%1]" : "=r" (result) : "r" (addr), "r" (value) );
 1323              		.loc 1 736 0
 1324 0012 3B68     		ldr	r3, [r7, #0]
 1325 0014 FA79     		ldrb	r2, [r7, #7]
 1326              	@ 736 "../../libs/CMSIS/CM3/CoreSupport/core_cm3.c" 1
 1327 0016 C3E8432F 		strexb r3, r2, [r3]
 1328              	@ 0 "" 2
 1329              		.thumb
 1330 001a FB60     		str	r3, [r7, #12]
 737:../../libs/CMSIS/CM3/CoreSupport/core_cm3.c ****    return(result);
 1331              		.loc 1 737 0
 1332 001c FB68     		ldr	r3, [r7, #12]
 738:../../libs/CMSIS/CM3/CoreSupport/core_cm3.c **** }
 1333              		.loc 1 738 0
 1334 001e 1846     		mov	r0, r3
 1335 0020 07F11407 		add	r7, r7, #20
 1336 0024 BD46     		mov	sp, r7
 1337 0026 80BC     		pop	{r7}
 1338 0028 7047     		bx	lr
ARM GAS  /tmp/ccr7pOni.s 			page 51


 1339              	.LFE19:
 1340              		.size	__STREXB, .-__STREXB
 1341 002a 00BF     		.section	.text.__STREXH,"ax",%progbits
 1342              		.align	2
 1343              		.global	__STREXH
 1344              		.thumb
 1345              		.thumb_func
 1346              		.type	__STREXH, %function
 1347              	__STREXH:
 1348              	.LFB20:
 739:../../libs/CMSIS/CM3/CoreSupport/core_cm3.c **** 
 740:../../libs/CMSIS/CM3/CoreSupport/core_cm3.c **** /**
 741:../../libs/CMSIS/CM3/CoreSupport/core_cm3.c ****  * @brief  STR Exclusive (16 bit)
 742:../../libs/CMSIS/CM3/CoreSupport/core_cm3.c ****  *
 743:../../libs/CMSIS/CM3/CoreSupport/core_cm3.c ****  * @param  value  value to store
 744:../../libs/CMSIS/CM3/CoreSupport/core_cm3.c ****  * @param  *addr  address pointer
 745:../../libs/CMSIS/CM3/CoreSupport/core_cm3.c ****  * @return        successful / failed
 746:../../libs/CMSIS/CM3/CoreSupport/core_cm3.c ****  *
 747:../../libs/CMSIS/CM3/CoreSupport/core_cm3.c ****  * Exclusive STR command for 16 bit values
 748:../../libs/CMSIS/CM3/CoreSupport/core_cm3.c ****  */
 749:../../libs/CMSIS/CM3/CoreSupport/core_cm3.c **** uint32_t __STREXH(uint16_t value, uint16_t *addr)
 750:../../libs/CMSIS/CM3/CoreSupport/core_cm3.c **** {
 1349              		.loc 1 750 0
 1350              		@ args = 0, pretend = 0, frame = 16
 1351              		@ frame_needed = 1, uses_anonymous_args = 0
 1352              		@ link register save eliminated.
 1353 0000 80B4     		push	{r7}
 1354              	.LCFI48:
 1355 0002 85B0     		sub	sp, sp, #20
 1356              	.LCFI49:
 1357 0004 00AF     		add	r7, sp, #0
 1358              	.LCFI50:
 1359 0006 0346     		mov	r3, r0
 1360 0008 3960     		str	r1, [r7, #0]
 1361 000a FB80     		strh	r3, [r7, #6]	@ movhi
 751:../../libs/CMSIS/CM3/CoreSupport/core_cm3.c ****    uint32_t result=0;
 1362              		.loc 1 751 0
 1363 000c 4FF00003 		mov	r3, #0
 1364 0010 FB60     		str	r3, [r7, #12]
 752:../../libs/CMSIS/CM3/CoreSupport/core_cm3.c ****   
 753:../../libs/CMSIS/CM3/CoreSupport/core_cm3.c ****    __ASM volatile ("strexh %0, %2, [%1]" : "=r" (result) : "r" (addr), "r" (value) );
 1365              		.loc 1 753 0
 1366 0012 3B68     		ldr	r3, [r7, #0]
 1367 0014 FA88     		ldrh	r2, [r7, #6]	@ movhi
 1368              	@ 753 "../../libs/CMSIS/CM3/CoreSupport/core_cm3.c" 1
 1369 0016 C3E8532F 		strexh r3, r2, [r3]
 1370              	@ 0 "" 2
 1371              		.thumb
 1372 001a FB60     		str	r3, [r7, #12]
 754:../../libs/CMSIS/CM3/CoreSupport/core_cm3.c ****    return(result);
 1373              		.loc 1 754 0
 1374 001c FB68     		ldr	r3, [r7, #12]
 755:../../libs/CMSIS/CM3/CoreSupport/core_cm3.c **** }
 1375              		.loc 1 755 0
 1376 001e 1846     		mov	r0, r3
 1377 0020 07F11407 		add	r7, r7, #20
 1378 0024 BD46     		mov	sp, r7
ARM GAS  /tmp/ccr7pOni.s 			page 52


 1379 0026 80BC     		pop	{r7}
 1380 0028 7047     		bx	lr
 1381              	.LFE20:
 1382              		.size	__STREXH, .-__STREXH
 1383 002a 00BF     		.section	.text.__STREXW,"ax",%progbits
 1384              		.align	2
 1385              		.global	__STREXW
 1386              		.thumb
 1387              		.thumb_func
 1388              		.type	__STREXW, %function
 1389              	__STREXW:
 1390              	.LFB21:
 756:../../libs/CMSIS/CM3/CoreSupport/core_cm3.c **** 
 757:../../libs/CMSIS/CM3/CoreSupport/core_cm3.c **** /**
 758:../../libs/CMSIS/CM3/CoreSupport/core_cm3.c ****  * @brief  STR Exclusive (32 bit)
 759:../../libs/CMSIS/CM3/CoreSupport/core_cm3.c ****  *
 760:../../libs/CMSIS/CM3/CoreSupport/core_cm3.c ****  * @param  value  value to store
 761:../../libs/CMSIS/CM3/CoreSupport/core_cm3.c ****  * @param  *addr  address pointer
 762:../../libs/CMSIS/CM3/CoreSupport/core_cm3.c ****  * @return        successful / failed
 763:../../libs/CMSIS/CM3/CoreSupport/core_cm3.c ****  *
 764:../../libs/CMSIS/CM3/CoreSupport/core_cm3.c ****  * Exclusive STR command for 32 bit values
 765:../../libs/CMSIS/CM3/CoreSupport/core_cm3.c ****  */
 766:../../libs/CMSIS/CM3/CoreSupport/core_cm3.c **** uint32_t __STREXW(uint32_t value, uint32_t *addr)
 767:../../libs/CMSIS/CM3/CoreSupport/core_cm3.c **** {
 1391              		.loc 1 767 0
 1392              		@ args = 0, pretend = 0, frame = 16
 1393              		@ frame_needed = 1, uses_anonymous_args = 0
 1394              		@ link register save eliminated.
 1395 0000 80B4     		push	{r7}
 1396              	.LCFI51:
 1397 0002 85B0     		sub	sp, sp, #20
 1398              	.LCFI52:
 1399 0004 00AF     		add	r7, sp, #0
 1400              	.LCFI53:
 1401 0006 7860     		str	r0, [r7, #4]
 1402 0008 3960     		str	r1, [r7, #0]
 768:../../libs/CMSIS/CM3/CoreSupport/core_cm3.c ****    uint32_t result=0;
 1403              		.loc 1 768 0
 1404 000a 4FF00003 		mov	r3, #0
 1405 000e FB60     		str	r3, [r7, #12]
 769:../../libs/CMSIS/CM3/CoreSupport/core_cm3.c ****   
 770:../../libs/CMSIS/CM3/CoreSupport/core_cm3.c ****    __ASM volatile ("strex %0, %2, [%1]" : "=r" (result) : "r" (addr), "r" (value) );
 1406              		.loc 1 770 0
 1407 0010 3B68     		ldr	r3, [r7, #0]
 1408 0012 7A68     		ldr	r2, [r7, #4]
 1409              	@ 770 "../../libs/CMSIS/CM3/CoreSupport/core_cm3.c" 1
 1410 0014 43E80023 		strex r3, r2, [r3]
 1411              	@ 0 "" 2
 1412              		.thumb
 1413 0018 FB60     		str	r3, [r7, #12]
 771:../../libs/CMSIS/CM3/CoreSupport/core_cm3.c ****    return(result);
 1414              		.loc 1 771 0
 1415 001a FB68     		ldr	r3, [r7, #12]
 772:../../libs/CMSIS/CM3/CoreSupport/core_cm3.c **** }
 1416              		.loc 1 772 0
 1417 001c 1846     		mov	r0, r3
 1418 001e 07F11407 		add	r7, r7, #20
ARM GAS  /tmp/ccr7pOni.s 			page 53


 1419 0022 BD46     		mov	sp, r7
 1420 0024 80BC     		pop	{r7}
 1421 0026 7047     		bx	lr
 1422              	.LFE21:
 1423              		.size	__STREXW, .-__STREXW
 1424              		.section	.debug_frame,"",%progbits
 1425              	.Lframe0:
 1426 0000 0C000000 		.4byte	.LECIE0-.LSCIE0
 1427              	.LSCIE0:
 1428 0004 FFFFFFFF 		.4byte	0xffffffff
 1429 0008 01       		.byte	0x1
 1430 0009 00       		.ascii	"\000"
 1431 000a 01       		.uleb128 0x1
 1432 000b 7C       		.sleb128 -4
 1433 000c 0E       		.byte	0xe
 1434 000d 0C       		.byte	0xc
 1435 000e 0D       		.uleb128 0xd
 1436 000f 00       		.uleb128 0x0
 1437              		.align	2
 1438              	.LECIE0:
 1439              	.LSFDE0:
 1440 0010 0C000000 		.4byte	.LEFDE0-.LASFDE0
 1441              	.LASFDE0:
 1442 0014 00000000 		.4byte	.Lframe0
 1443 0018 00000000 		.4byte	.LFB0
 1444 001c 10000000 		.4byte	.LFE0-.LFB0
 1445              		.align	2
 1446              	.LEFDE0:
 1447              	.LSFDE2:
 1448 0020 0C000000 		.4byte	.LEFDE2-.LASFDE2
 1449              	.LASFDE2:
 1450 0024 00000000 		.4byte	.Lframe0
 1451 0028 00000000 		.4byte	.LFB1
 1452 002c 08000000 		.4byte	.LFE1-.LFB1
 1453              		.align	2
 1454              	.LEFDE2:
 1455              	.LSFDE4:
 1456 0030 0C000000 		.4byte	.LEFDE4-.LASFDE4
 1457              	.LASFDE4:
 1458 0034 00000000 		.4byte	.Lframe0
 1459 0038 00000000 		.4byte	.LFB2
 1460 003c 10000000 		.4byte	.LFE2-.LFB2
 1461              		.align	2
 1462              	.LEFDE4:
 1463              	.LSFDE6:
 1464 0040 0C000000 		.4byte	.LEFDE6-.LASFDE6
 1465              	.LASFDE6:
 1466 0044 00000000 		.4byte	.Lframe0
 1467 0048 00000000 		.4byte	.LFB3
 1468 004c 08000000 		.4byte	.LFE3-.LFB3
 1469              		.align	2
 1470              	.LEFDE6:
 1471              	.LSFDE8:
 1472 0050 18000000 		.4byte	.LEFDE8-.LASFDE8
 1473              	.LASFDE8:
 1474 0054 00000000 		.4byte	.Lframe0
 1475 0058 00000000 		.4byte	.LFB4
ARM GAS  /tmp/ccr7pOni.s 			page 54


 1476 005c 20000000 		.4byte	.LFE4-.LFB4
 1477 0060 42       		.byte	0x4
 1478              		.4byte	.LCFI0-.LFB4
 1479 0061 0E       		.byte	0xe
 1480 0062 04       		.uleb128 0x4
 1481 0063 42       		.byte	0x4
 1482              		.4byte	.LCFI1-.LCFI0
 1483 0064 0E       		.byte	0xe
 1484 0065 10       		.uleb128 0x10
 1485 0066 11       		.byte	0x11
 1486 0067 07       		.uleb128 0x7
 1487 0068 01       		.sleb128 1
 1488 0069 42       		.byte	0x4
 1489              		.4byte	.LCFI2-.LCFI1
 1490 006a 0D       		.byte	0xd
 1491 006b 07       		.uleb128 0x7
 1492              		.align	2
 1493              	.LEFDE8:
 1494              	.LSFDE10:
 1495 006c 18000000 		.4byte	.LEFDE10-.LASFDE10
 1496              	.LASFDE10:
 1497 0070 00000000 		.4byte	.Lframe0
 1498 0074 00000000 		.4byte	.LFB5
 1499 0078 18000000 		.4byte	.LFE5-.LFB5
 1500 007c 42       		.byte	0x4
 1501              		.4byte	.LCFI3-.LFB5
 1502 007d 0E       		.byte	0xe
 1503 007e 04       		.uleb128 0x4
 1504 007f 42       		.byte	0x4
 1505              		.4byte	.LCFI4-.LCFI3
 1506 0080 0E       		.byte	0xe
 1507 0081 10       		.uleb128 0x10
 1508 0082 11       		.byte	0x11
 1509 0083 07       		.uleb128 0x7
 1510 0084 01       		.sleb128 1
 1511 0085 42       		.byte	0x4
 1512              		.4byte	.LCFI5-.LCFI4
 1513 0086 0D       		.byte	0xd
 1514 0087 07       		.uleb128 0x7
 1515              		.align	2
 1516              	.LEFDE10:
 1517              	.LSFDE12:
 1518 0088 18000000 		.4byte	.LEFDE12-.LASFDE12
 1519              	.LASFDE12:
 1520 008c 00000000 		.4byte	.Lframe0
 1521 0090 00000000 		.4byte	.LFB6
 1522 0094 20000000 		.4byte	.LFE6-.LFB6
 1523 0098 42       		.byte	0x4
 1524              		.4byte	.LCFI6-.LFB6
 1525 0099 0E       		.byte	0xe
 1526 009a 04       		.uleb128 0x4
 1527 009b 42       		.byte	0x4
 1528              		.4byte	.LCFI7-.LCFI6
 1529 009c 0E       		.byte	0xe
 1530 009d 10       		.uleb128 0x10
 1531 009e 11       		.byte	0x11
 1532 009f 07       		.uleb128 0x7
ARM GAS  /tmp/ccr7pOni.s 			page 55


 1533 00a0 01       		.sleb128 1
 1534 00a1 42       		.byte	0x4
 1535              		.4byte	.LCFI8-.LCFI7
 1536 00a2 0D       		.byte	0xd
 1537 00a3 07       		.uleb128 0x7
 1538              		.align	2
 1539              	.LEFDE12:
 1540              	.LSFDE14:
 1541 00a4 18000000 		.4byte	.LEFDE14-.LASFDE14
 1542              	.LASFDE14:
 1543 00a8 00000000 		.4byte	.Lframe0
 1544 00ac 00000000 		.4byte	.LFB7
 1545 00b0 18000000 		.4byte	.LFE7-.LFB7
 1546 00b4 42       		.byte	0x4
 1547              		.4byte	.LCFI9-.LFB7
 1548 00b5 0E       		.byte	0xe
 1549 00b6 04       		.uleb128 0x4
 1550 00b7 42       		.byte	0x4
 1551              		.4byte	.LCFI10-.LCFI9
 1552 00b8 0E       		.byte	0xe
 1553 00b9 10       		.uleb128 0x10
 1554 00ba 11       		.byte	0x11
 1555 00bb 07       		.uleb128 0x7
 1556 00bc 01       		.sleb128 1
 1557 00bd 42       		.byte	0x4
 1558              		.4byte	.LCFI11-.LCFI10
 1559 00be 0D       		.byte	0xd
 1560 00bf 07       		.uleb128 0x7
 1561              		.align	2
 1562              	.LEFDE14:
 1563              	.LSFDE16:
 1564 00c0 18000000 		.4byte	.LEFDE16-.LASFDE16
 1565              	.LASFDE16:
 1566 00c4 00000000 		.4byte	.Lframe0
 1567 00c8 00000000 		.4byte	.LFB8
 1568 00cc 20000000 		.4byte	.LFE8-.LFB8
 1569 00d0 42       		.byte	0x4
 1570              		.4byte	.LCFI12-.LFB8
 1571 00d1 0E       		.byte	0xe
 1572 00d2 04       		.uleb128 0x4
 1573 00d3 42       		.byte	0x4
 1574              		.4byte	.LCFI13-.LCFI12
 1575 00d4 0E       		.byte	0xe
 1576 00d5 10       		.uleb128 0x10
 1577 00d6 11       		.byte	0x11
 1578 00d7 07       		.uleb128 0x7
 1579 00d8 01       		.sleb128 1
 1580 00d9 42       		.byte	0x4
 1581              		.4byte	.LCFI14-.LCFI13
 1582 00da 0D       		.byte	0xd
 1583 00db 07       		.uleb128 0x7
 1584              		.align	2
 1585              	.LEFDE16:
 1586              	.LSFDE18:
 1587 00dc 18000000 		.4byte	.LEFDE18-.LASFDE18
 1588              	.LASFDE18:
 1589 00e0 00000000 		.4byte	.Lframe0
ARM GAS  /tmp/ccr7pOni.s 			page 56


 1590 00e4 00000000 		.4byte	.LFB9
 1591 00e8 18000000 		.4byte	.LFE9-.LFB9
 1592 00ec 42       		.byte	0x4
 1593              		.4byte	.LCFI15-.LFB9
 1594 00ed 0E       		.byte	0xe
 1595 00ee 04       		.uleb128 0x4
 1596 00ef 42       		.byte	0x4
 1597              		.4byte	.LCFI16-.LCFI15
 1598 00f0 0E       		.byte	0xe
 1599 00f1 10       		.uleb128 0x10
 1600 00f2 11       		.byte	0x11
 1601 00f3 07       		.uleb128 0x7
 1602 00f4 01       		.sleb128 1
 1603 00f5 42       		.byte	0x4
 1604              		.4byte	.LCFI17-.LCFI16
 1605 00f6 0D       		.byte	0xd
 1606 00f7 07       		.uleb128 0x7
 1607              		.align	2
 1608              	.LEFDE18:
 1609              	.LSFDE20:
 1610 00f8 18000000 		.4byte	.LEFDE20-.LASFDE20
 1611              	.LASFDE20:
 1612 00fc 00000000 		.4byte	.Lframe0
 1613 0100 00000000 		.4byte	.LFB10
 1614 0104 20000000 		.4byte	.LFE10-.LFB10
 1615 0108 42       		.byte	0x4
 1616              		.4byte	.LCFI18-.LFB10
 1617 0109 0E       		.byte	0xe
 1618 010a 04       		.uleb128 0x4
 1619 010b 42       		.byte	0x4
 1620              		.4byte	.LCFI19-.LCFI18
 1621 010c 0E       		.byte	0xe
 1622 010d 10       		.uleb128 0x10
 1623 010e 11       		.byte	0x11
 1624 010f 07       		.uleb128 0x7
 1625 0110 01       		.sleb128 1
 1626 0111 42       		.byte	0x4
 1627              		.4byte	.LCFI20-.LCFI19
 1628 0112 0D       		.byte	0xd
 1629 0113 07       		.uleb128 0x7
 1630              		.align	2
 1631              	.LEFDE20:
 1632              	.LSFDE22:
 1633 0114 18000000 		.4byte	.LEFDE22-.LASFDE22
 1634              	.LASFDE22:
 1635 0118 00000000 		.4byte	.Lframe0
 1636 011c 00000000 		.4byte	.LFB11
 1637 0120 18000000 		.4byte	.LFE11-.LFB11
 1638 0124 42       		.byte	0x4
 1639              		.4byte	.LCFI21-.LFB11
 1640 0125 0E       		.byte	0xe
 1641 0126 04       		.uleb128 0x4
 1642 0127 42       		.byte	0x4
 1643              		.4byte	.LCFI22-.LCFI21
 1644 0128 0E       		.byte	0xe
 1645 0129 10       		.uleb128 0x10
 1646 012a 11       		.byte	0x11
ARM GAS  /tmp/ccr7pOni.s 			page 57


 1647 012b 07       		.uleb128 0x7
 1648 012c 01       		.sleb128 1
 1649 012d 42       		.byte	0x4
 1650              		.4byte	.LCFI23-.LCFI22
 1651 012e 0D       		.byte	0xd
 1652 012f 07       		.uleb128 0x7
 1653              		.align	2
 1654              	.LEFDE22:
 1655              	.LSFDE24:
 1656 0130 18000000 		.4byte	.LEFDE24-.LASFDE24
 1657              	.LASFDE24:
 1658 0134 00000000 		.4byte	.Lframe0
 1659 0138 00000000 		.4byte	.LFB12
 1660 013c 22000000 		.4byte	.LFE12-.LFB12
 1661 0140 42       		.byte	0x4
 1662              		.4byte	.LCFI24-.LFB12
 1663 0141 0E       		.byte	0xe
 1664 0142 04       		.uleb128 0x4
 1665 0143 42       		.byte	0x4
 1666              		.4byte	.LCFI25-.LCFI24
 1667 0144 0E       		.byte	0xe
 1668 0145 18       		.uleb128 0x18
 1669 0146 11       		.byte	0x11
 1670 0147 07       		.uleb128 0x7
 1671 0148 01       		.sleb128 1
 1672 0149 42       		.byte	0x4
 1673              		.4byte	.LCFI26-.LCFI25
 1674 014a 0D       		.byte	0xd
 1675 014b 07       		.uleb128 0x7
 1676              		.align	2
 1677              	.LEFDE24:
 1678              	.LSFDE26:
 1679 014c 18000000 		.4byte	.LEFDE26-.LASFDE26
 1680              	.LASFDE26:
 1681 0150 00000000 		.4byte	.Lframe0
 1682 0154 00000000 		.4byte	.LFB13
 1683 0158 24000000 		.4byte	.LFE13-.LFB13
 1684 015c 42       		.byte	0x4
 1685              		.4byte	.LCFI27-.LFB13
 1686 015d 0E       		.byte	0xe
 1687 015e 04       		.uleb128 0x4
 1688 015f 42       		.byte	0x4
 1689              		.4byte	.LCFI28-.LCFI27
 1690 0160 0E       		.byte	0xe
 1691 0161 18       		.uleb128 0x18
 1692 0162 11       		.byte	0x11
 1693 0163 07       		.uleb128 0x7
 1694 0164 01       		.sleb128 1
 1695 0165 42       		.byte	0x4
 1696              		.4byte	.LCFI29-.LCFI28
 1697 0166 0D       		.byte	0xd
 1698 0167 07       		.uleb128 0x7
 1699              		.align	2
 1700              	.LEFDE26:
 1701              	.LSFDE28:
 1702 0168 18000000 		.4byte	.LEFDE28-.LASFDE28
 1703              	.LASFDE28:
ARM GAS  /tmp/ccr7pOni.s 			page 58


 1704 016c 00000000 		.4byte	.Lframe0
 1705 0170 00000000 		.4byte	.LFB14
 1706 0174 24000000 		.4byte	.LFE14-.LFB14
 1707 0178 42       		.byte	0x4
 1708              		.4byte	.LCFI30-.LFB14
 1709 0179 0E       		.byte	0xe
 1710 017a 04       		.uleb128 0x4
 1711 017b 42       		.byte	0x4
 1712              		.4byte	.LCFI31-.LCFI30
 1713 017c 0E       		.byte	0xe
 1714 017d 18       		.uleb128 0x18
 1715 017e 11       		.byte	0x11
 1716 017f 07       		.uleb128 0x7
 1717 0180 01       		.sleb128 1
 1718 0181 42       		.byte	0x4
 1719              		.4byte	.LCFI32-.LCFI31
 1720 0182 0D       		.byte	0xd
 1721 0183 07       		.uleb128 0x7
 1722              		.align	2
 1723              	.LEFDE28:
 1724              	.LSFDE30:
 1725 0184 18000000 		.4byte	.LEFDE30-.LASFDE30
 1726              	.LASFDE30:
 1727 0188 00000000 		.4byte	.Lframe0
 1728 018c 00000000 		.4byte	.LFB15
 1729 0190 24000000 		.4byte	.LFE15-.LFB15
 1730 0194 42       		.byte	0x4
 1731              		.4byte	.LCFI33-.LFB15
 1732 0195 0E       		.byte	0xe
 1733 0196 04       		.uleb128 0x4
 1734 0197 42       		.byte	0x4
 1735              		.4byte	.LCFI34-.LCFI33
 1736 0198 0E       		.byte	0xe
 1737 0199 18       		.uleb128 0x18
 1738 019a 11       		.byte	0x11
 1739 019b 07       		.uleb128 0x7
 1740 019c 01       		.sleb128 1
 1741 019d 42       		.byte	0x4
 1742              		.4byte	.LCFI35-.LCFI34
 1743 019e 0D       		.byte	0xd
 1744 019f 07       		.uleb128 0x7
 1745              		.align	2
 1746              	.LEFDE30:
 1747              	.LSFDE32:
 1748 01a0 18000000 		.4byte	.LEFDE32-.LASFDE32
 1749              	.LASFDE32:
 1750 01a4 00000000 		.4byte	.Lframe0
 1751 01a8 00000000 		.4byte	.LFB16
 1752 01ac 24000000 		.4byte	.LFE16-.LFB16
 1753 01b0 42       		.byte	0x4
 1754              		.4byte	.LCFI36-.LFB16
 1755 01b1 0E       		.byte	0xe
 1756 01b2 04       		.uleb128 0x4
 1757 01b3 42       		.byte	0x4
 1758              		.4byte	.LCFI37-.LCFI36
 1759 01b4 0E       		.byte	0xe
 1760 01b5 18       		.uleb128 0x18
ARM GAS  /tmp/ccr7pOni.s 			page 59


 1761 01b6 11       		.byte	0x11
 1762 01b7 07       		.uleb128 0x7
 1763 01b8 01       		.sleb128 1
 1764 01b9 42       		.byte	0x4
 1765              		.4byte	.LCFI38-.LCFI37
 1766 01ba 0D       		.byte	0xd
 1767 01bb 07       		.uleb128 0x7
 1768              		.align	2
 1769              	.LEFDE32:
 1770              	.LSFDE34:
 1771 01bc 18000000 		.4byte	.LEFDE34-.LASFDE34
 1772              	.LASFDE34:
 1773 01c0 00000000 		.4byte	.Lframe0
 1774 01c4 00000000 		.4byte	.LFB17
 1775 01c8 24000000 		.4byte	.LFE17-.LFB17
 1776 01cc 42       		.byte	0x4
 1777              		.4byte	.LCFI39-.LFB17
 1778 01cd 0E       		.byte	0xe
 1779 01ce 04       		.uleb128 0x4
 1780 01cf 42       		.byte	0x4
 1781              		.4byte	.LCFI40-.LCFI39
 1782 01d0 0E       		.byte	0xe
 1783 01d1 18       		.uleb128 0x18
 1784 01d2 11       		.byte	0x11
 1785 01d3 07       		.uleb128 0x7
 1786 01d4 01       		.sleb128 1
 1787 01d5 42       		.byte	0x4
 1788              		.4byte	.LCFI41-.LCFI40
 1789 01d6 0D       		.byte	0xd
 1790 01d7 07       		.uleb128 0x7
 1791              		.align	2
 1792              	.LEFDE34:
 1793              	.LSFDE36:
 1794 01d8 18000000 		.4byte	.LEFDE36-.LASFDE36
 1795              	.LASFDE36:
 1796 01dc 00000000 		.4byte	.Lframe0
 1797 01e0 00000000 		.4byte	.LFB18
 1798 01e4 24000000 		.4byte	.LFE18-.LFB18
 1799 01e8 42       		.byte	0x4
 1800              		.4byte	.LCFI42-.LFB18
 1801 01e9 0E       		.byte	0xe
 1802 01ea 04       		.uleb128 0x4
 1803 01eb 42       		.byte	0x4
 1804              		.4byte	.LCFI43-.LCFI42
 1805 01ec 0E       		.byte	0xe
 1806 01ed 18       		.uleb128 0x18
 1807 01ee 11       		.byte	0x11
 1808 01ef 07       		.uleb128 0x7
 1809 01f0 01       		.sleb128 1
 1810 01f1 42       		.byte	0x4
 1811              		.4byte	.LCFI44-.LCFI43
 1812 01f2 0D       		.byte	0xd
 1813 01f3 07       		.uleb128 0x7
 1814              		.align	2
 1815              	.LEFDE36:
 1816              	.LSFDE38:
 1817 01f4 18000000 		.4byte	.LEFDE38-.LASFDE38
ARM GAS  /tmp/ccr7pOni.s 			page 60


 1818              	.LASFDE38:
 1819 01f8 00000000 		.4byte	.Lframe0
 1820 01fc 00000000 		.4byte	.LFB19
 1821 0200 2A000000 		.4byte	.LFE19-.LFB19
 1822 0204 42       		.byte	0x4
 1823              		.4byte	.LCFI45-.LFB19
 1824 0205 0E       		.byte	0xe
 1825 0206 04       		.uleb128 0x4
 1826 0207 42       		.byte	0x4
 1827              		.4byte	.LCFI46-.LCFI45
 1828 0208 0E       		.byte	0xe
 1829 0209 18       		.uleb128 0x18
 1830 020a 11       		.byte	0x11
 1831 020b 07       		.uleb128 0x7
 1832 020c 01       		.sleb128 1
 1833 020d 42       		.byte	0x4
 1834              		.4byte	.LCFI47-.LCFI46
 1835 020e 0D       		.byte	0xd
 1836 020f 07       		.uleb128 0x7
 1837              		.align	2
 1838              	.LEFDE38:
 1839              	.LSFDE40:
 1840 0210 18000000 		.4byte	.LEFDE40-.LASFDE40
 1841              	.LASFDE40:
 1842 0214 00000000 		.4byte	.Lframe0
 1843 0218 00000000 		.4byte	.LFB20
 1844 021c 2A000000 		.4byte	.LFE20-.LFB20
 1845 0220 42       		.byte	0x4
 1846              		.4byte	.LCFI48-.LFB20
 1847 0221 0E       		.byte	0xe
 1848 0222 04       		.uleb128 0x4
 1849 0223 42       		.byte	0x4
 1850              		.4byte	.LCFI49-.LCFI48
 1851 0224 0E       		.byte	0xe
 1852 0225 18       		.uleb128 0x18
 1853 0226 11       		.byte	0x11
 1854 0227 07       		.uleb128 0x7
 1855 0228 01       		.sleb128 1
 1856 0229 42       		.byte	0x4
 1857              		.4byte	.LCFI50-.LCFI49
 1858 022a 0D       		.byte	0xd
 1859 022b 07       		.uleb128 0x7
 1860              		.align	2
 1861              	.LEFDE40:
 1862              	.LSFDE42:
 1863 022c 18000000 		.4byte	.LEFDE42-.LASFDE42
 1864              	.LASFDE42:
 1865 0230 00000000 		.4byte	.Lframe0
 1866 0234 00000000 		.4byte	.LFB21
 1867 0238 28000000 		.4byte	.LFE21-.LFB21
 1868 023c 42       		.byte	0x4
 1869              		.4byte	.LCFI51-.LFB21
 1870 023d 0E       		.byte	0xe
 1871 023e 04       		.uleb128 0x4
 1872 023f 42       		.byte	0x4
 1873              		.4byte	.LCFI52-.LCFI51
 1874 0240 0E       		.byte	0xe
ARM GAS  /tmp/ccr7pOni.s 			page 61


 1875 0241 18       		.uleb128 0x18
 1876 0242 11       		.byte	0x11
 1877 0243 07       		.uleb128 0x7
 1878 0244 01       		.sleb128 1
 1879 0245 42       		.byte	0x4
 1880              		.4byte	.LCFI53-.LCFI52
 1881 0246 0D       		.byte	0xd
 1882 0247 07       		.uleb128 0x7
 1883              		.align	2
 1884              	.LEFDE42:
 1885              		.text
 1886              	.Letext0: