ARM GAS  /tmp/cc6hjd24.s 			page 1


   1              		.syntax unified
   2              		.cpu cortex-m3
   3              		.fpu softvfp
   4              		.eabi_attribute 20, 1
   5              		.eabi_attribute 21, 1
   6              		.eabi_attribute 23, 3
   7              		.eabi_attribute 24, 1
   8              		.eabi_attribute 25, 1
   9              		.eabi_attribute 26, 1
  10              		.eabi_attribute 30, 6
  11              		.eabi_attribute 18, 4
  12              		.thumb
  13              		.file	"LPC17xx_Interrupts.c"
  14              		.section	.debug_abbrev,"",%progbits
  15              	.Ldebug_abbrev0:
  16              		.section	.debug_info,"",%progbits
  17              	.Ldebug_info0:
  18              		.section	.debug_line,"",%progbits
  19              	.Ldebug_line0:
  20 0000 5B000000 		.section	.debug_macinfo,"",%progbits
  20      02002B00 
  20      00000201 
  20      FB0E0D00 
  20      01010101 
  21              	.Ldebug_macinfo0:
  22              		.text
  23              	.Ltext0:
  24              		.file 1 "LPC17xx_Interrupts.c"
  25              		.section	.debug_macinfo
  26 0000 03       		.byte	0x3
  27 0001 00       		.uleb128 0x0
  28 0002 01       		.uleb128 0x1
  29 0003 01       		.byte	0x1
  30 0004 00       		.uleb128 0x0
  31 0005 5F5F5354 		.ascii	"__STDC__ 1\000"
  31      44435F5F 
  31      203100
  32 0010 01       		.byte	0x1
  33 0011 00       		.uleb128 0x0
  34 0012 5F5F5354 		.ascii	"__STDC_VERSION__ 199901L\000"
  34      44435F56 
  34      45525349 
  34      4F4E5F5F 
  34      20313939 
  35 002b 01       		.byte	0x1
  36 002c 00       		.uleb128 0x0
  37 002d 5F5F5354 		.ascii	"__STDC_HOSTED__ 1\000"
  37      44435F48 
  37      4F535445 
  37      445F5F20 
  37      3100
  38 003f 01       		.byte	0x1
  39 0040 00       		.uleb128 0x0
  40 0041 5F5F474E 		.ascii	"__GNUC__ 4\000"
  40      55435F5F 
  40      203400
  41 004c 01       		.byte	0x1
ARM GAS  /tmp/cc6hjd24.s 			page 2


  42 004d 00       		.uleb128 0x0
  43 004e 5F5F474E 		.ascii	"__GNUC_MINOR__ 4\000"
  43      55435F4D 
  43      494E4F52 
  43      5F5F2034 
  43      00
  44 005f 01       		.byte	0x1
  45 0060 00       		.uleb128 0x0
  46 0061 5F5F474E 		.ascii	"__GNUC_PATCHLEVEL__ 1\000"
  46      55435F50 
  46      41544348 
  46      4C455645 
  46      4C5F5F20 
  47 0077 01       		.byte	0x1
  48 0078 00       		.uleb128 0x0
  49 0079 5F5F5349 		.ascii	"__SIZE_TYPE__ unsigned int\000"
  49      5A455F54 
  49      5950455F 
  49      5F20756E 
  49      7369676E 
  50 0094 01       		.byte	0x1
  51 0095 00       		.uleb128 0x0
  52 0096 5F5F5054 		.ascii	"__PTRDIFF_TYPE__ int\000"
  52      52444946 
  52      465F5459 
  52      50455F5F 
  52      20696E74 
  53 00ab 01       		.byte	0x1
  54 00ac 00       		.uleb128 0x0
  55 00ad 5F5F5743 		.ascii	"__WCHAR_TYPE__ unsigned int\000"
  55      4841525F 
  55      54595045 
  55      5F5F2075 
  55      6E736967 
  56 00c9 01       		.byte	0x1
  57 00ca 00       		.uleb128 0x0
  58 00cb 5F5F5749 		.ascii	"__WINT_TYPE__ unsigned int\000"
  58      4E545F54 
  58      5950455F 
  58      5F20756E 
  58      7369676E 
  59 00e6 01       		.byte	0x1
  60 00e7 00       		.uleb128 0x0
  61 00e8 5F5F494E 		.ascii	"__INTMAX_TYPE__ long long int\000"
  61      544D4158 
  61      5F545950 
  61      455F5F20 
  61      6C6F6E67 
  62 0106 01       		.byte	0x1
  63 0107 00       		.uleb128 0x0
  64 0108 5F5F5549 		.ascii	"__UINTMAX_TYPE__ long long unsigned int\000"
  64      4E544D41 
  64      585F5459 
  64      50455F5F 
  64      206C6F6E 
  65 0130 01       		.byte	0x1
  66 0131 00       		.uleb128 0x0
ARM GAS  /tmp/cc6hjd24.s 			page 3


  67 0132 5F5F4348 		.ascii	"__CHAR16_TYPE__ short unsigned int\000"
  67      41523136 
  67      5F545950 
  67      455F5F20 
  67      73686F72 
  68 0155 01       		.byte	0x1
  69 0156 00       		.uleb128 0x0
  70 0157 5F5F4348 		.ascii	"__CHAR32_TYPE__ unsigned int\000"
  70      41523332 
  70      5F545950 
  70      455F5F20 
  70      756E7369 
  71 0174 01       		.byte	0x1
  72 0175 00       		.uleb128 0x0
  73 0176 5F5F4758 		.ascii	"__GXX_ABI_VERSION 1002\000"
  73      585F4142 
  73      495F5645 
  73      5253494F 
  73      4E203130 
  74 018d 01       		.byte	0x1
  75 018e 00       		.uleb128 0x0
  76 018f 5F5F5343 		.ascii	"__SCHAR_MAX__ 127\000"
  76      4841525F 
  76      4D41585F 
  76      5F203132 
  76      3700
  77 01a1 01       		.byte	0x1
  78 01a2 00       		.uleb128 0x0
  79 01a3 5F5F5348 		.ascii	"__SHRT_MAX__ 32767\000"
  79      52545F4D 
  79      41585F5F 
  79      20333237 
  79      363700
  80 01b6 01       		.byte	0x1
  81 01b7 00       		.uleb128 0x0
  82 01b8 5F5F494E 		.ascii	"__INT_MAX__ 2147483647\000"
  82      545F4D41 
  82      585F5F20 
  82      32313437 
  82      34383336 
  83 01cf 01       		.byte	0x1
  84 01d0 00       		.uleb128 0x0
  85 01d1 5F5F4C4F 		.ascii	"__LONG_MAX__ 2147483647L\000"
  85      4E475F4D 
  85      41585F5F 
  85      20323134 
  85      37343833 
  86 01ea 01       		.byte	0x1
  87 01eb 00       		.uleb128 0x0
  88 01ec 5F5F4C4F 		.ascii	"__LONG_LONG_MAX__ 9223372036854775807LL\000"
  88      4E475F4C 
  88      4F4E475F 
  88      4D41585F 
  88      5F203932 
  89 0214 01       		.byte	0x1
  90 0215 00       		.uleb128 0x0
  91 0216 5F5F5743 		.ascii	"__WCHAR_MAX__ 4294967295U\000"
ARM GAS  /tmp/cc6hjd24.s 			page 4


  91      4841525F 
  91      4D41585F 
  91      5F203432 
  91      39343936 
  92 0230 01       		.byte	0x1
  93 0231 00       		.uleb128 0x0
  94 0232 5F5F4348 		.ascii	"__CHAR_BIT__ 8\000"
  94      41525F42 
  94      49545F5F 
  94      203800
  95 0241 01       		.byte	0x1
  96 0242 00       		.uleb128 0x0
  97 0243 5F5F494E 		.ascii	"__INTMAX_MAX__ 9223372036854775807LL\000"
  97      544D4158 
  97      5F4D4158 
  97      5F5F2039 
  97      32323333 
  98 0268 01       		.byte	0x1
  99 0269 00       		.uleb128 0x0
 100 026a 5F5F464C 		.ascii	"__FLT_EVAL_METHOD__ 0\000"
 100      545F4556 
 100      414C5F4D 
 100      4554484F 
 100      445F5F20 
 101 0280 01       		.byte	0x1
 102 0281 00       		.uleb128 0x0
 103 0282 5F5F4445 		.ascii	"__DEC_EVAL_METHOD__ 2\000"
 103      435F4556 
 103      414C5F4D 
 103      4554484F 
 103      445F5F20 
 104 0298 01       		.byte	0x1
 105 0299 00       		.uleb128 0x0
 106 029a 5F5F464C 		.ascii	"__FLT_RADIX__ 2\000"
 106      545F5241 
 106      4449585F 
 106      5F203200 
 107 02aa 01       		.byte	0x1
 108 02ab 00       		.uleb128 0x0
 109 02ac 5F5F464C 		.ascii	"__FLT_MANT_DIG__ 24\000"
 109      545F4D41 
 109      4E545F44 
 109      49475F5F 
 109      20323400 
 110 02c0 01       		.byte	0x1
 111 02c1 00       		.uleb128 0x0
 112 02c2 5F5F464C 		.ascii	"__FLT_DIG__ 6\000"
 112      545F4449 
 112      475F5F20 
 112      3600
 113 02d0 01       		.byte	0x1
 114 02d1 00       		.uleb128 0x0
 115 02d2 5F5F464C 		.ascii	"__FLT_MIN_EXP__ (-125)\000"
 115      545F4D49 
 115      4E5F4558 
 115      505F5F20 
 115      282D3132 
ARM GAS  /tmp/cc6hjd24.s 			page 5


 116 02e9 01       		.byte	0x1
 117 02ea 00       		.uleb128 0x0
 118 02eb 5F5F464C 		.ascii	"__FLT_MIN_10_EXP__ (-37)\000"
 118      545F4D49 
 118      4E5F3130 
 118      5F455850 
 118      5F5F2028 
 119 0304 01       		.byte	0x1
 120 0305 00       		.uleb128 0x0
 121 0306 5F5F464C 		.ascii	"__FLT_MAX_EXP__ 128\000"
 121      545F4D41 
 121      585F4558 
 121      505F5F20 
 121      31323800 
 122 031a 01       		.byte	0x1
 123 031b 00       		.uleb128 0x0
 124 031c 5F5F464C 		.ascii	"__FLT_MAX_10_EXP__ 38\000"
 124      545F4D41 
 124      585F3130 
 124      5F455850 
 124      5F5F2033 
 125 0332 01       		.byte	0x1
 126 0333 00       		.uleb128 0x0
 127 0334 5F5F464C 		.ascii	"__FLT_MAX__ 3.40282347e+38F\000"
 127      545F4D41 
 127      585F5F20 
 127      332E3430 
 127      32383233 
 128 0350 01       		.byte	0x1
 129 0351 00       		.uleb128 0x0
 130 0352 5F5F464C 		.ascii	"__FLT_MIN__ 1.17549435e-38F\000"
 130      545F4D49 
 130      4E5F5F20 
 130      312E3137 
 130      35343934 
 131 036e 01       		.byte	0x1
 132 036f 00       		.uleb128 0x0
 133 0370 5F5F464C 		.ascii	"__FLT_EPSILON__ 1.19209290e-7F\000"
 133      545F4550 
 133      53494C4F 
 133      4E5F5F20 
 133      312E3139 
 134 038f 01       		.byte	0x1
 135 0390 00       		.uleb128 0x0
 136 0391 5F5F464C 		.ascii	"__FLT_DENORM_MIN__ 1.40129846e-45F\000"
 136      545F4445 
 136      4E4F524D 
 136      5F4D494E 
 136      5F5F2031 
 137 03b4 01       		.byte	0x1
 138 03b5 00       		.uleb128 0x0
 139 03b6 5F5F464C 		.ascii	"__FLT_HAS_DENORM__ 1\000"
 139      545F4841 
 139      535F4445 
 139      4E4F524D 
 139      5F5F2031 
 140 03cb 01       		.byte	0x1
ARM GAS  /tmp/cc6hjd24.s 			page 6


 141 03cc 00       		.uleb128 0x0
 142 03cd 5F5F464C 		.ascii	"__FLT_HAS_INFINITY__ 1\000"
 142      545F4841 
 142      535F494E 
 142      46494E49 
 142      54595F5F 
 143 03e4 01       		.byte	0x1
 144 03e5 00       		.uleb128 0x0
 145 03e6 5F5F464C 		.ascii	"__FLT_HAS_QUIET_NAN__ 1\000"
 145      545F4841 
 145      535F5155 
 145      4945545F 
 145      4E414E5F 
 146 03fe 01       		.byte	0x1
 147 03ff 00       		.uleb128 0x0
 148 0400 5F5F4442 		.ascii	"__DBL_MANT_DIG__ 53\000"
 148      4C5F4D41 
 148      4E545F44 
 148      49475F5F 
 148      20353300 
 149 0414 01       		.byte	0x1
 150 0415 00       		.uleb128 0x0
 151 0416 5F5F4442 		.ascii	"__DBL_DIG__ 15\000"
 151      4C5F4449 
 151      475F5F20 
 151      313500
 152 0425 01       		.byte	0x1
 153 0426 00       		.uleb128 0x0
 154 0427 5F5F4442 		.ascii	"__DBL_MIN_EXP__ (-1021)\000"
 154      4C5F4D49 
 154      4E5F4558 
 154      505F5F20 
 154      282D3130 
 155 043f 01       		.byte	0x1
 156 0440 00       		.uleb128 0x0
 157 0441 5F5F4442 		.ascii	"__DBL_MIN_10_EXP__ (-307)\000"
 157      4C5F4D49 
 157      4E5F3130 
 157      5F455850 
 157      5F5F2028 
 158 045b 01       		.byte	0x1
 159 045c 00       		.uleb128 0x0
 160 045d 5F5F4442 		.ascii	"__DBL_MAX_EXP__ 1024\000"
 160      4C5F4D41 
 160      585F4558 
 160      505F5F20 
 160      31303234 
 161 0472 01       		.byte	0x1
 162 0473 00       		.uleb128 0x0
 163 0474 5F5F4442 		.ascii	"__DBL_MAX_10_EXP__ 308\000"
 163      4C5F4D41 
 163      585F3130 
 163      5F455850 
 163      5F5F2033 
 164 048b 01       		.byte	0x1
 165 048c 00       		.uleb128 0x0
 166 048d 5F5F4442 		.ascii	"__DBL_MAX__ 1.7976931348623157e+308\000"
ARM GAS  /tmp/cc6hjd24.s 			page 7


 166      4C5F4D41 
 166      585F5F20 
 166      312E3739 
 166      37363933 
 167 04b1 01       		.byte	0x1
 168 04b2 00       		.uleb128 0x0
 169 04b3 5F5F4442 		.ascii	"__DBL_MIN__ 2.2250738585072014e-308\000"
 169      4C5F4D49 
 169      4E5F5F20 
 169      322E3232 
 169      35303733 
 170 04d7 01       		.byte	0x1
 171 04d8 00       		.uleb128 0x0
 172 04d9 5F5F4442 		.ascii	"__DBL_EPSILON__ 2.2204460492503131e-16\000"
 172      4C5F4550 
 172      53494C4F 
 172      4E5F5F20 
 172      322E3232 
 173 0500 01       		.byte	0x1
 174 0501 00       		.uleb128 0x0
 175 0502 5F5F4442 		.ascii	"__DBL_DENORM_MIN__ 4.9406564584124654e-324\000"
 175      4C5F4445 
 175      4E4F524D 
 175      5F4D494E 
 175      5F5F2034 
 176 052d 01       		.byte	0x1
 177 052e 00       		.uleb128 0x0
 178 052f 5F5F4442 		.ascii	"__DBL_HAS_DENORM__ 1\000"
 178      4C5F4841 
 178      535F4445 
 178      4E4F524D 
 178      5F5F2031 
 179 0544 01       		.byte	0x1
 180 0545 00       		.uleb128 0x0
 181 0546 5F5F4442 		.ascii	"__DBL_HAS_INFINITY__ 1\000"
 181      4C5F4841 
 181      535F494E 
 181      46494E49 
 181      54595F5F 
 182 055d 01       		.byte	0x1
 183 055e 00       		.uleb128 0x0
 184 055f 5F5F4442 		.ascii	"__DBL_HAS_QUIET_NAN__ 1\000"
 184      4C5F4841 
 184      535F5155 
 184      4945545F 
 184      4E414E5F 
 185 0577 01       		.byte	0x1
 186 0578 00       		.uleb128 0x0
 187 0579 5F5F4C44 		.ascii	"__LDBL_MANT_DIG__ 53\000"
 187      424C5F4D 
 187      414E545F 
 187      4449475F 
 187      5F203533 
 188 058e 01       		.byte	0x1
 189 058f 00       		.uleb128 0x0
 190 0590 5F5F4C44 		.ascii	"__LDBL_DIG__ 15\000"
 190      424C5F44 
ARM GAS  /tmp/cc6hjd24.s 			page 8


 190      49475F5F 
 190      20313500 
 191 05a0 01       		.byte	0x1
 192 05a1 00       		.uleb128 0x0
 193 05a2 5F5F4C44 		.ascii	"__LDBL_MIN_EXP__ (-1021)\000"
 193      424C5F4D 
 193      494E5F45 
 193      58505F5F 
 193      20282D31 
 194 05bb 01       		.byte	0x1
 195 05bc 00       		.uleb128 0x0
 196 05bd 5F5F4C44 		.ascii	"__LDBL_MIN_10_EXP__ (-307)\000"
 196      424C5F4D 
 196      494E5F31 
 196      305F4558 
 196      505F5F20 
 197 05d8 01       		.byte	0x1
 198 05d9 00       		.uleb128 0x0
 199 05da 5F5F4C44 		.ascii	"__LDBL_MAX_EXP__ 1024\000"
 199      424C5F4D 
 199      41585F45 
 199      58505F5F 
 199      20313032 
 200 05f0 01       		.byte	0x1
 201 05f1 00       		.uleb128 0x0
 202 05f2 5F5F4C44 		.ascii	"__LDBL_MAX_10_EXP__ 308\000"
 202      424C5F4D 
 202      41585F31 
 202      305F4558 
 202      505F5F20 
 203 060a 01       		.byte	0x1
 204 060b 00       		.uleb128 0x0
 205 060c 5F5F4445 		.ascii	"__DECIMAL_DIG__ 17\000"
 205      43494D41 
 205      4C5F4449 
 205      475F5F20 
 205      313700
 206 061f 01       		.byte	0x1
 207 0620 00       		.uleb128 0x0
 208 0621 5F5F4C44 		.ascii	"__LDBL_MAX__ 1.7976931348623157e+308L\000"
 208      424C5F4D 
 208      41585F5F 
 208      20312E37 
 208      39373639 
 209 0647 01       		.byte	0x1
 210 0648 00       		.uleb128 0x0
 211 0649 5F5F4C44 		.ascii	"__LDBL_MIN__ 2.2250738585072014e-308L\000"
 211      424C5F4D 
 211      494E5F5F 
 211      20322E32 
 211      32353037 
 212 066f 01       		.byte	0x1
 213 0670 00       		.uleb128 0x0
 214 0671 5F5F4C44 		.ascii	"__LDBL_EPSILON__ 2.2204460492503131e-16L\000"
 214      424C5F45 
 214      5053494C 
 214      4F4E5F5F 
ARM GAS  /tmp/cc6hjd24.s 			page 9


 214      20322E32 
 215 069a 01       		.byte	0x1
 216 069b 00       		.uleb128 0x0
 217 069c 5F5F4C44 		.ascii	"__LDBL_DENORM_MIN__ 4.9406564584124654e-324L\000"
 217      424C5F44 
 217      454E4F52 
 217      4D5F4D49 
 217      4E5F5F20 
 218 06c9 01       		.byte	0x1
 219 06ca 00       		.uleb128 0x0
 220 06cb 5F5F4C44 		.ascii	"__LDBL_HAS_DENORM__ 1\000"
 220      424C5F48 
 220      41535F44 
 220      454E4F52 
 220      4D5F5F20 
 221 06e1 01       		.byte	0x1
 222 06e2 00       		.uleb128 0x0
 223 06e3 5F5F4C44 		.ascii	"__LDBL_HAS_INFINITY__ 1\000"
 223      424C5F48 
 223      41535F49 
 223      4E46494E 
 223      4954595F 
 224 06fb 01       		.byte	0x1
 225 06fc 00       		.uleb128 0x0
 226 06fd 5F5F4C44 		.ascii	"__LDBL_HAS_QUIET_NAN__ 1\000"
 226      424C5F48 
 226      41535F51 
 226      55494554 
 226      5F4E414E 
 227 0716 01       		.byte	0x1
 228 0717 00       		.uleb128 0x0
 229 0718 5F5F4445 		.ascii	"__DEC32_MANT_DIG__ 7\000"
 229      4333325F 
 229      4D414E54 
 229      5F444947 
 229      5F5F2037 
 230 072d 01       		.byte	0x1
 231 072e 00       		.uleb128 0x0
 232 072f 5F5F4445 		.ascii	"__DEC32_MIN_EXP__ (-94)\000"
 232      4333325F 
 232      4D494E5F 
 232      4558505F 
 232      5F20282D 
 233 0747 01       		.byte	0x1
 234 0748 00       		.uleb128 0x0
 235 0749 5F5F4445 		.ascii	"__DEC32_MAX_EXP__ 97\000"
 235      4333325F 
 235      4D41585F 
 235      4558505F 
 235      5F203937 
 236 075e 01       		.byte	0x1
 237 075f 00       		.uleb128 0x0
 238 0760 5F5F4445 		.ascii	"__DEC32_MIN__ 1E-95DF\000"
 238      4333325F 
 238      4D494E5F 
 238      5F203145 
 238      2D393544 
ARM GAS  /tmp/cc6hjd24.s 			page 10


 239 0776 01       		.byte	0x1
 240 0777 00       		.uleb128 0x0
 241 0778 5F5F4445 		.ascii	"__DEC32_MAX__ 9.999999E96DF\000"
 241      4333325F 
 241      4D41585F 
 241      5F20392E 
 241      39393939 
 242 0794 01       		.byte	0x1
 243 0795 00       		.uleb128 0x0
 244 0796 5F5F4445 		.ascii	"__DEC32_EPSILON__ 1E-6DF\000"
 244      4333325F 
 244      45505349 
 244      4C4F4E5F 
 244      5F203145 
 245 07af 01       		.byte	0x1
 246 07b0 00       		.uleb128 0x0
 247 07b1 5F5F4445 		.ascii	"__DEC32_SUBNORMAL_MIN__ 0.000001E-95DF\000"
 247      4333325F 
 247      5355424E 
 247      4F524D41 
 247      4C5F4D49 
 248 07d8 01       		.byte	0x1
 249 07d9 00       		.uleb128 0x0
 250 07da 5F5F4445 		.ascii	"__DEC64_MANT_DIG__ 16\000"
 250      4336345F 
 250      4D414E54 
 250      5F444947 
 250      5F5F2031 
 251 07f0 01       		.byte	0x1
 252 07f1 00       		.uleb128 0x0
 253 07f2 5F5F4445 		.ascii	"__DEC64_MIN_EXP__ (-382)\000"
 253      4336345F 
 253      4D494E5F 
 253      4558505F 
 253      5F20282D 
 254 080b 01       		.byte	0x1
 255 080c 00       		.uleb128 0x0
 256 080d 5F5F4445 		.ascii	"__DEC64_MAX_EXP__ 385\000"
 256      4336345F 
 256      4D41585F 
 256      4558505F 
 256      5F203338 
 257 0823 01       		.byte	0x1
 258 0824 00       		.uleb128 0x0
 259 0825 5F5F4445 		.ascii	"__DEC64_MIN__ 1E-383DD\000"
 259      4336345F 
 259      4D494E5F 
 259      5F203145 
 259      2D333833 
 260 083c 01       		.byte	0x1
 261 083d 00       		.uleb128 0x0
 262 083e 5F5F4445 		.ascii	"__DEC64_MAX__ 9.999999999999999E384DD\000"
 262      4336345F 
 262      4D41585F 
 262      5F20392E 
 262      39393939 
 263 0864 01       		.byte	0x1
ARM GAS  /tmp/cc6hjd24.s 			page 11


 264 0865 00       		.uleb128 0x0
 265 0866 5F5F4445 		.ascii	"__DEC64_EPSILON__ 1E-15DD\000"
 265      4336345F 
 265      45505349 
 265      4C4F4E5F 
 265      5F203145 
 266 0880 01       		.byte	0x1
 267 0881 00       		.uleb128 0x0
 268 0882 5F5F4445 		.ascii	"__DEC64_SUBNORMAL_MIN__ 0.000000000000001E-383DD\000"
 268      4336345F 
 268      5355424E 
 268      4F524D41 
 268      4C5F4D49 
 269 08b3 01       		.byte	0x1
 270 08b4 00       		.uleb128 0x0
 271 08b5 5F5F4445 		.ascii	"__DEC128_MANT_DIG__ 34\000"
 271      43313238 
 271      5F4D414E 
 271      545F4449 
 271      475F5F20 
 272 08cc 01       		.byte	0x1
 273 08cd 00       		.uleb128 0x0
 274 08ce 5F5F4445 		.ascii	"__DEC128_MIN_EXP__ (-6142)\000"
 274      43313238 
 274      5F4D494E 
 274      5F455850 
 274      5F5F2028 
 275 08e9 01       		.byte	0x1
 276 08ea 00       		.uleb128 0x0
 277 08eb 5F5F4445 		.ascii	"__DEC128_MAX_EXP__ 6145\000"
 277      43313238 
 277      5F4D4158 
 277      5F455850 
 277      5F5F2036 
 278 0903 01       		.byte	0x1
 279 0904 00       		.uleb128 0x0
 280 0905 5F5F4445 		.ascii	"__DEC128_MIN__ 1E-6143DL\000"
 280      43313238 
 280      5F4D494E 
 280      5F5F2031 
 280      452D3631 
 281 091e 01       		.byte	0x1
 282 091f 00       		.uleb128 0x0
 283 0920 5F5F4445 		.ascii	"__DEC128_MAX__ 9.999999999999999999999999999999999E"
 283      43313238 
 283      5F4D4158 
 283      5F5F2039 
 283      2E393939 
 284 0953 36313434 		.ascii	"6144DL\000"
 284      444C00
 285 095a 01       		.byte	0x1
 286 095b 00       		.uleb128 0x0
 287 095c 5F5F4445 		.ascii	"__DEC128_EPSILON__ 1E-33DL\000"
 287      43313238 
 287      5F455053 
 287      494C4F4E 
 287      5F5F2031 
ARM GAS  /tmp/cc6hjd24.s 			page 12


 288 0977 01       		.byte	0x1
 289 0978 00       		.uleb128 0x0
 290 0979 5F5F4445 		.ascii	"__DEC128_SUBNORMAL_MIN__ 0.000000000000000000000000"
 290      43313238 
 290      5F535542 
 290      4E4F524D 
 290      414C5F4D 
 291 09ac 30303030 		.ascii	"000000001E-6143DL\000"
 291      30303030 
 291      31452D36 
 291      31343344 
 291      4C00
 292 09be 01       		.byte	0x1
 293 09bf 00       		.uleb128 0x0
 294 09c0 5F5F5245 		.ascii	"__REGISTER_PREFIX__ \000"
 294      47495354 
 294      45525F50 
 294      52454649 
 294      585F5F20 
 295 09d5 01       		.byte	0x1
 296 09d6 00       		.uleb128 0x0
 297 09d7 5F5F5553 		.ascii	"__USER_LABEL_PREFIX__ \000"
 297      45525F4C 
 297      4142454C 
 297      5F505245 
 297      4649585F 
 298 09ee 01       		.byte	0x1
 299 09ef 00       		.uleb128 0x0
 300 09f0 5F5F5645 		.ascii	"__VERSION__ \"4.4.1\"\000"
 300      5253494F 
 300      4E5F5F20 
 300      22342E34 
 300      2E312200 
 301 0a04 01       		.byte	0x1
 302 0a05 00       		.uleb128 0x0
 303 0a06 5F5F474E 		.ascii	"__GNUC_STDC_INLINE__ 1\000"
 303      55435F53 
 303      5444435F 
 303      494E4C49 
 303      4E455F5F 
 304 0a1d 01       		.byte	0x1
 305 0a1e 00       		.uleb128 0x0
 306 0a1f 5F5F4E4F 		.ascii	"__NO_INLINE__ 1\000"
 306      5F494E4C 
 306      494E455F 
 306      5F203100 
 307 0a2f 01       		.byte	0x1
 308 0a30 00       		.uleb128 0x0
 309 0a31 5F5F4649 		.ascii	"__FINITE_MATH_ONLY__ 0\000"
 309      4E495445 
 309      5F4D4154 
 309      485F4F4E 
 309      4C595F5F 
 310 0a48 01       		.byte	0x1
 311 0a49 00       		.uleb128 0x0
 312 0a4a 5F5F4348 		.ascii	"__CHAR_UNSIGNED__ 1\000"
 312      41525F55 
ARM GAS  /tmp/cc6hjd24.s 			page 13


 312      4E534947 
 312      4E45445F 
 312      5F203100 
 313 0a5e 01       		.byte	0x1
 314 0a5f 00       		.uleb128 0x0
 315 0a60 5F5F5349 		.ascii	"__SIZEOF_INT__ 4\000"
 315      5A454F46 
 315      5F494E54 
 315      5F5F2034 
 315      00
 316 0a71 01       		.byte	0x1
 317 0a72 00       		.uleb128 0x0
 318 0a73 5F5F5349 		.ascii	"__SIZEOF_LONG__ 4\000"
 318      5A454F46 
 318      5F4C4F4E 
 318      475F5F20 
 318      3400
 319 0a85 01       		.byte	0x1
 320 0a86 00       		.uleb128 0x0
 321 0a87 5F5F5349 		.ascii	"__SIZEOF_LONG_LONG__ 8\000"
 321      5A454F46 
 321      5F4C4F4E 
 321      475F4C4F 
 321      4E475F5F 
 322 0a9e 01       		.byte	0x1
 323 0a9f 00       		.uleb128 0x0
 324 0aa0 5F5F5349 		.ascii	"__SIZEOF_SHORT__ 2\000"
 324      5A454F46 
 324      5F53484F 
 324      52545F5F 
 324      203200
 325 0ab3 01       		.byte	0x1
 326 0ab4 00       		.uleb128 0x0
 327 0ab5 5F5F5349 		.ascii	"__SIZEOF_FLOAT__ 4\000"
 327      5A454F46 
 327      5F464C4F 
 327      41545F5F 
 327      203400
 328 0ac8 01       		.byte	0x1
 329 0ac9 00       		.uleb128 0x0
 330 0aca 5F5F5349 		.ascii	"__SIZEOF_DOUBLE__ 8\000"
 330      5A454F46 
 330      5F444F55 
 330      424C455F 
 330      5F203800 
 331 0ade 01       		.byte	0x1
 332 0adf 00       		.uleb128 0x0
 333 0ae0 5F5F5349 		.ascii	"__SIZEOF_LONG_DOUBLE__ 8\000"
 333      5A454F46 
 333      5F4C4F4E 
 333      475F444F 
 333      55424C45 
 334 0af9 01       		.byte	0x1
 335 0afa 00       		.uleb128 0x0
 336 0afb 5F5F5349 		.ascii	"__SIZEOF_SIZE_T__ 4\000"
 336      5A454F46 
 336      5F53495A 
ARM GAS  /tmp/cc6hjd24.s 			page 14


 336      455F545F 
 336      5F203400 
 337 0b0f 01       		.byte	0x1
 338 0b10 00       		.uleb128 0x0
 339 0b11 5F5F5349 		.ascii	"__SIZEOF_WCHAR_T__ 4\000"
 339      5A454F46 
 339      5F574348 
 339      41525F54 
 339      5F5F2034 
 340 0b26 01       		.byte	0x1
 341 0b27 00       		.uleb128 0x0
 342 0b28 5F5F5349 		.ascii	"__SIZEOF_WINT_T__ 4\000"
 342      5A454F46 
 342      5F57494E 
 342      545F545F 
 342      5F203400 
 343 0b3c 01       		.byte	0x1
 344 0b3d 00       		.uleb128 0x0
 345 0b3e 5F5F5349 		.ascii	"__SIZEOF_PTRDIFF_T__ 4\000"
 345      5A454F46 
 345      5F505452 
 345      44494646 
 345      5F545F5F 
 346 0b55 01       		.byte	0x1
 347 0b56 00       		.uleb128 0x0
 348 0b57 5F5F5349 		.ascii	"__SIZEOF_POINTER__ 4\000"
 348      5A454F46 
 348      5F504F49 
 348      4E544552 
 348      5F5F2034 
 349 0b6c 01       		.byte	0x1
 350 0b6d 00       		.uleb128 0x0
 351 0b6e 5F5F6172 		.ascii	"__arm__ 1\000"
 351      6D5F5F20 
 351      3100
 352 0b78 01       		.byte	0x1
 353 0b79 00       		.uleb128 0x0
 354 0b7a 5F5F4150 		.ascii	"__APCS_32__ 1\000"
 354      43535F33 
 354      325F5F20 
 354      3100
 355 0b88 01       		.byte	0x1
 356 0b89 00       		.uleb128 0x0
 357 0b8a 5F5F7468 		.ascii	"__thumb__ 1\000"
 357      756D625F 
 357      5F203100 
 358 0b96 01       		.byte	0x1
 359 0b97 00       		.uleb128 0x0
 360 0b98 5F5F7468 		.ascii	"__thumb2__ 1\000"
 360      756D6232 
 360      5F5F2031 
 360      00
 361 0ba5 01       		.byte	0x1
 362 0ba6 00       		.uleb128 0x0
 363 0ba7 5F5F4152 		.ascii	"__ARMEL__ 1\000"
 363      4D454C5F 
 363      5F203100 
ARM GAS  /tmp/cc6hjd24.s 			page 15


 364 0bb3 01       		.byte	0x1
 365 0bb4 00       		.uleb128 0x0
 366 0bb5 5F5F5448 		.ascii	"__THUMBEL__ 1\000"
 366      554D4245 
 366      4C5F5F20 
 366      3100
 367 0bc3 01       		.byte	0x1
 368 0bc4 00       		.uleb128 0x0
 369 0bc5 5F5F534F 		.ascii	"__SOFTFP__ 1\000"
 369      46544650 
 369      5F5F2031 
 369      00
 370 0bd2 01       		.byte	0x1
 371 0bd3 00       		.uleb128 0x0
 372 0bd4 5F5F5646 		.ascii	"__VFP_FP__ 1\000"
 372      505F4650 
 372      5F5F2031 
 372      00
 373 0be1 01       		.byte	0x1
 374 0be2 00       		.uleb128 0x0
 375 0be3 5F5F5448 		.ascii	"__THUMB_INTERWORK__ 1\000"
 375      554D425F 
 375      494E5445 
 375      52574F52 
 375      4B5F5F20 
 376 0bf9 01       		.byte	0x1
 377 0bfa 00       		.uleb128 0x0
 378 0bfb 5F5F4152 		.ascii	"__ARM_ARCH_7M__ 1\000"
 378      4D5F4152 
 378      43485F37 
 378      4D5F5F20 
 378      3100
 379 0c0d 01       		.byte	0x1
 380 0c0e 00       		.uleb128 0x0
 381 0c0f 5F5F4152 		.ascii	"__ARM_EABI__ 1\000"
 381      4D5F4541 
 381      42495F5F 
 381      203100
 382 0c1e 01       		.byte	0x1
 383 0c1f 00       		.uleb128 0x0
 384 0c20 5F5F4758 		.ascii	"__GXX_TYPEINFO_EQUALITY_INLINE 0\000"
 384      585F5459 
 384      5045494E 
 384      464F5F45 
 384      5155414C 
 385 0c41 01       		.byte	0x1
 386 0c42 00       		.uleb128 0x0
 387 0c43 5F5F454C 		.ascii	"__ELF__ 1\000"
 387      465F5F20 
 387      3100
 388 0c4d 01       		.byte	0x1
 389 0c4e 00       		.uleb128 0x0
 390 0c4f 5F5F4249 		.ascii	"__BIGGEST_ALIGNMENT__ 8\000"
 390      47474553 
 390      545F414C 
 390      49474E4D 
 390      454E545F 
ARM GAS  /tmp/cc6hjd24.s 			page 16


 391 0c67 01       		.byte	0x1
 392 0c68 00       		.uleb128 0x0
 393 0c69 5F5F5553 		.ascii	"__USES_INITFINI__ 1\000"
 393      45535F49 
 393      4E495446 
 393      494E495F 
 393      5F203100 
 394 0c7d 01       		.byte	0x1
 395 0c7e 00       		.uleb128 0x0
 396 0c7f 465F4350 		.ascii	"F_CPU 12000000UL\000"
 396      55203132 
 396      30303030 
 396      3030554C 
 396      00
 397 0c90 01       		.byte	0x1
 398 0c91 00       		.uleb128 0x0
 399 0c92 465F434C 		.ascii	"F_CLOCK 12000000UL\000"
 399      4F434B20 
 399      31323030 
 399      30303030 
 399      554C00
 400 0ca5 01       		.byte	0x1
 401 0ca6 00       		.uleb128 0x0
 402 0ca7 424F4152 		.ascii	"BOARD BOARD_\000"
 402      4420424F 
 402      4152445F 
 402      00
 403 0cb4 01       		.byte	0x1
 404 0cb5 00       		.uleb128 0x0
 405 0cb6 44454255 		.ascii	"DEBUG 1\000"
 405      47203100 
 406 0cbe 01       		.byte	0x1
 407 0cbf 00       		.uleb128 0x0
 408 0cc0 5041434B 		.ascii	"PACK_STRUCT_END __attribute((packed))\000"
 408      5F535452 
 408      5543545F 
 408      454E4420 
 408      5F5F6174 
 409 0ce6 01       		.byte	0x1
 410 0ce7 00       		.uleb128 0x0
 411 0ce8 414C4947 		.ascii	"ALIGN_STRUCT_END __attribute((aligned(4)))\000"
 411      4E5F5354 
 411      52554354 
 411      5F454E44 
 411      205F5F61 
 412 0d13 01       		.byte	0x1
 413 0d14 00       		.uleb128 0x0
 414 0d15 5F4C5043 		.ascii	"_LPC1758_ 1\000"
 414      31373538 
 414      5F203100 
 415 0d21 04       		.byte	0x4
 416              		.section	.text.Reset_Handler,"ax",%progbits
 417              		.align	2
 418              		.global	Reset_Handler
 419              		.thumb
 420              		.thumb_func
 421              		.type	Reset_Handler, %function
ARM GAS  /tmp/cc6hjd24.s 			page 17


 422              	Reset_Handler:
 423              	.LFB0:
   1:LPC17xx_Interrupts.c **** /*
   2:LPC17xx_Interrupts.c ****   Copyright 2010-02 By Opendous Inc. (www.opendous.org)
   3:LPC17xx_Interrupts.c ****   NVIC handler info copied from NXP User Manual UM10360
   4:LPC17xx_Interrupts.c **** 
   5:LPC17xx_Interrupts.c ****   Basic interrupt handlers and NVIC interrupt handler
   6:LPC17xx_Interrupts.c ****   function table for the LPC17xx.  See TODOs for
   7:LPC17xx_Interrupts.c ****   modification instructions.
   8:LPC17xx_Interrupts.c **** 
   9:LPC17xx_Interrupts.c ****   Permission to use, copy, modify, and distribute this software
  10:LPC17xx_Interrupts.c ****   and its documentation for any purpose and without fee is hereby
  11:LPC17xx_Interrupts.c ****   granted, provided that the above copyright notice appear in all
  12:LPC17xx_Interrupts.c ****   copies and that both that the copyright notice and this
  13:LPC17xx_Interrupts.c ****   permission notice and warranty disclaimer appear in supporting
  14:LPC17xx_Interrupts.c ****   documentation, and that the name of the author not be used in
  15:LPC17xx_Interrupts.c ****   advertising or publicity pertaining to distribution of the
  16:LPC17xx_Interrupts.c ****   software without specific, written prior permission.
  17:LPC17xx_Interrupts.c **** 
  18:LPC17xx_Interrupts.c ****   The author disclaim all warranties with regard to this
  19:LPC17xx_Interrupts.c ****   software, including all implied warranties of merchantability
  20:LPC17xx_Interrupts.c ****   and fitness.  In no event shall the author be liable for any
  21:LPC17xx_Interrupts.c ****   special, indirect or consequential damages or any damages
  22:LPC17xx_Interrupts.c ****   whatsoever resulting from loss of use, data or profits, whether
  23:LPC17xx_Interrupts.c ****   in an action of contract, negligence or other tortious action,
  24:LPC17xx_Interrupts.c ****   arising out of or in connection with the use or performance of
  25:LPC17xx_Interrupts.c ****   this software.
  26:LPC17xx_Interrupts.c **** */
  27:LPC17xx_Interrupts.c **** 
  28:LPC17xx_Interrupts.c **** 
  29:LPC17xx_Interrupts.c **** /* Reset_Handler variables defined in linker script */
  30:LPC17xx_Interrupts.c **** extern void _StackTop;
  31:LPC17xx_Interrupts.c **** extern unsigned long _data;
  32:LPC17xx_Interrupts.c **** extern unsigned long _edata;
  33:LPC17xx_Interrupts.c **** extern unsigned long _etext;
  34:LPC17xx_Interrupts.c **** extern unsigned long _bss;
  35:LPC17xx_Interrupts.c **** extern unsigned long _ebss;
  36:LPC17xx_Interrupts.c **** 
  37:LPC17xx_Interrupts.c **** extern int main(void);
  38:LPC17xx_Interrupts.c **** 
  39:LPC17xx_Interrupts.c **** /* Reset Handler */
  40:LPC17xx_Interrupts.c **** void Reset_Handler(void)
  41:LPC17xx_Interrupts.c **** {
 424              		.loc 1 41 0
 425              		@ args = 0, pretend = 0, frame = 8
 426              		@ frame_needed = 1, uses_anonymous_args = 0
 427 0000 80B5     		push	{r7, lr}
 428              	.LCFI0:
 429 0002 82B0     		sub	sp, sp, #8
 430              	.LCFI1:
 431 0004 00AF     		add	r7, sp, #0
 432              	.LCFI2:
  42:LPC17xx_Interrupts.c ****     unsigned long *src, *dest;
  43:LPC17xx_Interrupts.c **** 
  44:LPC17xx_Interrupts.c **** 	// Copy the data segment initializers from flash to SRAM
  45:LPC17xx_Interrupts.c **** 	src = &_etext;
 433              		.loc 1 45 0
ARM GAS  /tmp/cc6hjd24.s 			page 18


 434 0006 40F20003 		movw	r3, #:lower16:_etext
 435 000a C0F20003 		movt	r3, #:upper16:_etext
 436 000e 3B60     		str	r3, [r7, #0]
  46:LPC17xx_Interrupts.c **** 	for(dest = &_data; dest < &_edata; )
 437              		.loc 1 46 0
 438 0010 40F20003 		movw	r3, #:lower16:_data
 439 0014 C0F20003 		movt	r3, #:upper16:_data
 440 0018 7B60     		str	r3, [r7, #4]
 441 001a 0BE0     		b	.L2
 442              	.L3:
  47:LPC17xx_Interrupts.c **** 	{
  48:LPC17xx_Interrupts.c **** 		*dest++ = *src++;
 443              		.loc 1 48 0
 444 001c 3B68     		ldr	r3, [r7, #0]
 445 001e 1A68     		ldr	r2, [r3, #0]
 446 0020 7B68     		ldr	r3, [r7, #4]
 447 0022 1A60     		str	r2, [r3, #0]
 448 0024 7B68     		ldr	r3, [r7, #4]
 449 0026 03F10403 		add	r3, r3, #4
 450 002a 7B60     		str	r3, [r7, #4]
 451 002c 3B68     		ldr	r3, [r7, #0]
 452 002e 03F10403 		add	r3, r3, #4
 453 0032 3B60     		str	r3, [r7, #0]
 454              	.L2:
 455              		.loc 1 46 0
 456 0034 7A68     		ldr	r2, [r7, #4]
 457 0036 40F20003 		movw	r3, #:lower16:_edata
 458 003a C0F20003 		movt	r3, #:upper16:_edata
 459 003e 9A42     		cmp	r2, r3
 460 0040 ECD3     		bcc	.L3
  49:LPC17xx_Interrupts.c **** 	}
  50:LPC17xx_Interrupts.c **** 
  51:LPC17xx_Interrupts.c **** 	// Initialize the .bss segment of memory to zeros
  52:LPC17xx_Interrupts.c **** 	src = &_bss;
 461              		.loc 1 52 0
 462 0042 40F20003 		movw	r3, #:lower16:_bss
 463 0046 C0F20003 		movt	r3, #:upper16:_bss
 464 004a 3B60     		str	r3, [r7, #0]
  53:LPC17xx_Interrupts.c **** 	while (src < &_ebss)
 465              		.loc 1 53 0
 466 004c 07E0     		b	.L4
 467              	.L5:
  54:LPC17xx_Interrupts.c **** 	{
  55:LPC17xx_Interrupts.c **** 		*src++ = 0;
 468              		.loc 1 55 0
 469 004e 3B68     		ldr	r3, [r7, #0]
 470 0050 4FF00002 		mov	r2, #0
 471 0054 1A60     		str	r2, [r3, #0]
 472 0056 3B68     		ldr	r3, [r7, #0]
 473 0058 03F10403 		add	r3, r3, #4
 474 005c 3B60     		str	r3, [r7, #0]
 475              	.L4:
 476              		.loc 1 53 0
 477 005e 3A68     		ldr	r2, [r7, #0]
 478 0060 40F20003 		movw	r3, #:lower16:_ebss
 479 0064 C0F20003 		movt	r3, #:upper16:_ebss
 480 0068 9A42     		cmp	r2, r3
ARM GAS  /tmp/cc6hjd24.s 			page 19


 481 006a F0D3     		bcc	.L5
  56:LPC17xx_Interrupts.c **** 	}
  57:LPC17xx_Interrupts.c **** 
  58:LPC17xx_Interrupts.c **** 	main();
 482              		.loc 1 58 0
 483 006c FFF7FEFF 		bl	main
 484              	.L6:
  59:LPC17xx_Interrupts.c **** 
  60:LPC17xx_Interrupts.c **** 	// In case main() fails, have something to breakpoint
  61:LPC17xx_Interrupts.c **** 	while (1) {;}
 485              		.loc 1 61 0
 486 0070 FEE7     		b	.L6
 487              	.LFE0:
 488              		.size	Reset_Handler, .-Reset_Handler
 489 0072 00BF     		.section	.text.Default_Handler,"ax",%progbits
 490              		.align	2
 491              		.thumb
 492              		.thumb_func
 493              		.type	Default_Handler, %function
 494              	Default_Handler:
 495              	.LFB1:
  62:LPC17xx_Interrupts.c **** }
  63:LPC17xx_Interrupts.c **** 
  64:LPC17xx_Interrupts.c **** 
  65:LPC17xx_Interrupts.c **** /* Default interrupt handler */
  66:LPC17xx_Interrupts.c **** static void Default_Handler(void) { while(1) {;} }
 496              		.loc 1 66 0
 497              		@ args = 0, pretend = 0, frame = 0
 498              		@ frame_needed = 1, uses_anonymous_args = 0
 499              		@ link register save eliminated.
 500 0000 80B4     		push	{r7}
 501              	.LCFI3:
 502 0002 00AF     		add	r7, sp, #0
 503              	.LCFI4:
 504              	.L9:
 505              		.loc 1 66 0
 506 0004 FEE7     		b	.L9
 507              	.LFE1:
 508              		.size	Default_Handler, .-Default_Handler
 509              		.global	_NVIC_Handler_Functions
 510 0006 00BF     		.section	.irq_handler_table,"a",%progbits
 511              		.align	2
 512              		.type	_NVIC_Handler_Functions, %object
 513              		.size	_NVIC_Handler_Functions, 204
 514              	_NVIC_Handler_Functions:
 515 0000 00000000 		.word	_StackTop
 516 0004 00000000 		.word	Reset_Handler
 517 0008 00000000 		.word	NMI_Handler
 518 000c 00000000 		.word	HardFault_Handler
 519 0010 00000000 		.word	MemManagement_Handler
 520 0014 00000000 		.word	BusFault_Handler
 521 0018 00000000 		.word	UsageFault_Handler
 522 001c 00000000 		.word	0
 523 0020 00000000 		.word	0
 524 0024 00000000 		.word	0
 525 0028 00000000 		.word	0
 526 002c 00000000 		.word	vPortSVCHandler
ARM GAS  /tmp/cc6hjd24.s 			page 20


 527 0030 00000000 		.word	DebugMon_Handler
 528 0034 00000000 		.word	0
 529 0038 00000000 		.word	xPortPendSVHandler
 530 003c 00000000 		.word	xPortSysTickHandler
 531 0040 00000000 		.word	WDT_IRQHandler
 532 0044 00000000 		.word	TIMER0_IRQHandler
 533 0048 00000000 		.word	TIMER1_IRQHandler
 534 004c 00000000 		.word	TIMER2_IRQHandler
 535 0050 00000000 		.word	TIMER3_IRQHandler
 536 0054 00000000 		.word	UART0_IRQHandler
 537 0058 00000000 		.word	UART1_IRQHandler
 538 005c 00000000 		.word	UART2_IRQHandler
 539 0060 00000000 		.word	UART3_IRQHandler
 540 0064 00000000 		.word	PWM1_IRQHandler
 541 0068 00000000 		.word	I2C0_IRQHandler
 542 006c 00000000 		.word	I2C1_IRQHandler
 543 0070 00000000 		.word	I2C2_IRQHandler
 544 0074 00000000 		.word	SPI_IRQHandler
 545 0078 00000000 		.word	SSP0_IRQHandler
 546 007c 00000000 		.word	SSP1_IRQHandler
 547 0080 00000000 		.word	PLL0_IRQHandler
 548 0084 00000000 		.word	RTC_IRQHandler
 549 0088 00000000 		.word	EINT0_IRQHandler
 550 008c 00000000 		.word	EINT1_IRQHandler
 551 0090 00000000 		.word	EINT2_IRQHandler
 552 0094 00000000 		.word	EINT3_IRQHandler
 553 0098 00000000 		.word	ADC_IRQHandler
 554 009c 00000000 		.word	BOD_IRQHandler
 555 00a0 00000000 		.word	USB_IRQHandler
 556 00a4 00000000 		.word	CAN_IRQHandler
 557 00a8 00000000 		.word	DMA_IRQHandler
 558 00ac 00000000 		.word	I2S_IRQHandler
 559 00b0 00000000 		.word	vEMAC_ISR
 560 00b4 00000000 		.word	RIT_IRQHandler
 561 00b8 00000000 		.word	MCPWM_IRQHandler
 562 00bc 00000000 		.word	QEI_IRQHandler
 563 00c0 00000000 		.word	PLL1_IRQHandler
 564 00c4 00000000 		.word	USBACT_IRQHandler
 565 00c8 00000000 		.word	CANACT_IRQHandler
 566              		.weak	NMI_Handler
 567              		.thumb_set NMI_Handler,Default_Handler
 568              		.weak	HardFault_Handler
 569              		.thumb_set HardFault_Handler,Default_Handler
 570              		.weak	MemManagement_Handler
 571              		.thumb_set MemManagement_Handler,Default_Handler
 572              		.weak	BusFault_Handler
 573              		.thumb_set BusFault_Handler,Default_Handler
 574              		.weak	UsageFault_Handler
 575              		.thumb_set UsageFault_Handler,Default_Handler
 576              		.weak	DebugMon_Handler
 577              		.thumb_set DebugMon_Handler,Default_Handler
 578              		.weak	WDT_IRQHandler
 579              		.thumb_set WDT_IRQHandler,Default_Handler
 580              		.weak	TIMER0_IRQHandler
 581              		.thumb_set TIMER0_IRQHandler,Default_Handler
 582              		.weak	TIMER1_IRQHandler
 583              		.thumb_set TIMER1_IRQHandler,Default_Handler
ARM GAS  /tmp/cc6hjd24.s 			page 21


 584              		.weak	TIMER2_IRQHandler
 585              		.thumb_set TIMER2_IRQHandler,Default_Handler
 586              		.weak	TIMER3_IRQHandler
 587              		.thumb_set TIMER3_IRQHandler,Default_Handler
 588              		.weak	UART0_IRQHandler
 589              		.thumb_set UART0_IRQHandler,Default_Handler
 590              		.weak	UART1_IRQHandler
 591              		.thumb_set UART1_IRQHandler,Default_Handler
 592              		.weak	UART2_IRQHandler
 593              		.thumb_set UART2_IRQHandler,Default_Handler
 594              		.weak	UART3_IRQHandler
 595              		.thumb_set UART3_IRQHandler,Default_Handler
 596              		.weak	PWM1_IRQHandler
 597              		.thumb_set PWM1_IRQHandler,Default_Handler
 598              		.weak	I2C0_IRQHandler
 599              		.thumb_set I2C0_IRQHandler,Default_Handler
 600              		.weak	I2C1_IRQHandler
 601              		.thumb_set I2C1_IRQHandler,Default_Handler
 602              		.weak	I2C2_IRQHandler
 603              		.thumb_set I2C2_IRQHandler,Default_Handler
 604              		.weak	SPI_IRQHandler
 605              		.thumb_set SPI_IRQHandler,Default_Handler
 606              		.weak	SSP0_IRQHandler
 607              		.thumb_set SSP0_IRQHandler,Default_Handler
 608              		.weak	SSP1_IRQHandler
 609              		.thumb_set SSP1_IRQHandler,Default_Handler
 610              		.weak	PLL0_IRQHandler
 611              		.thumb_set PLL0_IRQHandler,Default_Handler
 612              		.weak	RTC_IRQHandler
 613              		.thumb_set RTC_IRQHandler,Default_Handler
 614              		.weak	EINT0_IRQHandler
 615              		.thumb_set EINT0_IRQHandler,Default_Handler
 616              		.weak	EINT1_IRQHandler
 617              		.thumb_set EINT1_IRQHandler,Default_Handler
 618              		.weak	EINT2_IRQHandler
 619              		.thumb_set EINT2_IRQHandler,Default_Handler
 620              		.weak	EINT3_IRQHandler
 621              		.thumb_set EINT3_IRQHandler,Default_Handler
 622              		.weak	ADC_IRQHandler
 623              		.thumb_set ADC_IRQHandler,Default_Handler
 624              		.weak	BOD_IRQHandler
 625              		.thumb_set BOD_IRQHandler,Default_Handler
 626              		.weak	USB_IRQHandler
 627              		.thumb_set USB_IRQHandler,Default_Handler
 628              		.weak	CAN_IRQHandler
 629              		.thumb_set CAN_IRQHandler,Default_Handler
 630              		.weak	DMA_IRQHandler
 631              		.thumb_set DMA_IRQHandler,Default_Handler
 632              		.weak	I2S_IRQHandler
 633              		.thumb_set I2S_IRQHandler,Default_Handler
 634              		.weak	ENET_IRQHandler
 635              		.thumb_set ENET_IRQHandler,Default_Handler
 636              		.weak	RIT_IRQHandler
 637              		.thumb_set RIT_IRQHandler,Default_Handler
 638              		.weak	MCPWM_IRQHandler
 639              		.thumb_set MCPWM_IRQHandler,Default_Handler
 640              		.weak	QEI_IRQHandler
ARM GAS  /tmp/cc6hjd24.s 			page 22


 641              		.thumb_set QEI_IRQHandler,Default_Handler
 642              		.weak	PLL1_IRQHandler
 643              		.thumb_set PLL1_IRQHandler,Default_Handler
 644              		.weak	USBACT_IRQHandler
 645              		.thumb_set USBACT_IRQHandler,Default_Handler
 646              		.weak	CANACT_IRQHandler
 647              		.thumb_set CANACT_IRQHandler,Default_Handler
 648              		.weak	vEMAC_ISR
 649              		.thumb_set vEMAC_ISR,Default_Handler
 650              		.section	.debug_frame,"",%progbits
 651              	.Lframe0:
 652 0000 0C000000 		.4byte	.LECIE0-.LSCIE0
 653              	.LSCIE0:
 654 0004 FFFFFFFF 		.4byte	0xffffffff
 655 0008 01       		.byte	0x1
 656 0009 00       		.ascii	"\000"
 657 000a 01       		.uleb128 0x1
 658 000b 7C       		.sleb128 -4
 659 000c 0E       		.byte	0xe
 660 000d 0C       		.byte	0xc
 661 000e 0D       		.uleb128 0xd
 662 000f 00       		.uleb128 0x0
 663              		.align	2
 664              	.LECIE0:
 665              	.LSFDE0:
 666 0010 1C000000 		.4byte	.LEFDE0-.LASFDE0
 667              	.LASFDE0:
 668 0014 00000000 		.4byte	.Lframe0
 669 0018 00000000 		.4byte	.LFB0
 670 001c 72000000 		.4byte	.LFE0-.LFB0
 671 0020 42       		.byte	0x4
 672              		.4byte	.LCFI0-.LFB0
 673 0021 0E       		.byte	0xe
 674 0022 08       		.uleb128 0x8
 675 0023 42       		.byte	0x4
 676              		.4byte	.LCFI1-.LCFI0
 677 0024 0E       		.byte	0xe
 678 0025 10       		.uleb128 0x10
 679 0026 11       		.byte	0x11
 680 0027 0E       		.uleb128 0xe
 681 0028 01       		.sleb128 1
 682 0029 11       		.byte	0x11
 683 002a 07       		.uleb128 0x7
 684 002b 02       		.sleb128 2
 685 002c 42       		.byte	0x4
 686              		.4byte	.LCFI2-.LCFI1
 687 002d 0D       		.byte	0xd
 688 002e 07       		.uleb128 0x7
 689 002f 00       		.align	2
 690              	.LEFDE0:
 691              	.LSFDE2:
 692 0030 18000000 		.4byte	.LEFDE2-.LASFDE2
 693              	.LASFDE2:
 694 0034 00000000 		.4byte	.Lframe0
 695 0038 00000000 		.4byte	.LFB1
 696 003c 06000000 		.4byte	.LFE1-.LFB1
 697 0040 42       		.byte	0x4
ARM GAS  /tmp/cc6hjd24.s 			page 23


 698              		.4byte	.LCFI3-.LFB1
 699 0041 0E       		.byte	0xe
 700 0042 04       		.uleb128 0x4
 701 0043 11       		.byte	0x11
 702 0044 07       		.uleb128 0x7
 703 0045 01       		.sleb128 1
 704 0046 42       		.byte	0x4
 705              		.4byte	.LCFI4-.LCFI3
 706 0047 0D       		.byte	0xd
 707 0048 07       		.uleb128 0x7
 708 0049 000000   		.align	2
 709              	.LEFDE2:
 710              		.text
 711              	.Letext0:
 712              		.section	.debug_loc,"",%progbits
 713              	.Ldebug_loc0:
 714              	.LLST0:
 715 0000 00000000 		.4byte	.LFB0
 716 0004 02000000 		.4byte	.LCFI0
 717 0008 0100     		.2byte	0x1
 718 000a 5D       		.byte	0x5d
 719 000b 02000000 		.4byte	.LCFI0
 720 000f 04000000 		.4byte	.LCFI1
 721 0013 0200     		.2byte	0x2
 722 0015 7D       		.byte	0x7d
 723 0016 08       		.sleb128 8
 724 0017 04000000 		.4byte	.LCFI1
 725 001b 06000000 		.4byte	.LCFI2
 726 001f 0200     		.2byte	0x2
 727 0021 7D       		.byte	0x7d
 728 0022 10       		.sleb128 16
 729 0023 06000000 		.4byte	.LCFI2
 730 0027 72000000 		.4byte	.LFE0
 731 002b 0200     		.2byte	0x2
 732 002d 77       		.byte	0x77
 733 002e 10       		.sleb128 16
 734 002f 00000000 		.4byte	0x0
 735 0033 00000000 		.4byte	0x0
 736              	.LLST1:
 737 0037 00000000 		.4byte	.LFB1
 738 003b 02000000 		.4byte	.LCFI3
 739 003f 0100     		.2byte	0x1
 740 0041 5D       		.byte	0x5d
 741 0042 02000000 		.4byte	.LCFI3
 742 0046 04000000 		.4byte	.LCFI4
 743 004a 0200     		.2byte	0x2
 744 004c 7D       		.byte	0x7d
 745 004d 04       		.sleb128 4
 746 004e 04000000 		.4byte	.LCFI4
 747 0052 06000000 		.4byte	.LFE1
 748 0056 0200     		.2byte	0x2
 749 0058 77       		.byte	0x77
 750 0059 04       		.sleb128 4
 751 005a 00000000 		.4byte	0x0
 752 005e 00000000 		.4byte	0x0
 753              		.section	.debug_info
 754 0000 FD000000 		.4byte	0xfd
ARM GAS  /tmp/cc6hjd24.s 			page 24


 755 0004 0200     		.2byte	0x2
 756 0006 00000000 		.4byte	.Ldebug_abbrev0
 757 000a 04       		.byte	0x4
 758 000b 01       		.uleb128 0x1
 759 000c F0000000 		.4byte	.LASF8
 760 0010 01       		.byte	0x1
 761 0011 D6000000 		.4byte	.LASF9
 762 0015 32000000 		.4byte	.LASF10
 763 0019 00000000 		.4byte	0x0
 764 001d 00000000 		.4byte	0x0
 765 0021 00000000 		.4byte	.Ldebug_ranges0+0x0
 766 0025 00000000 		.4byte	.Ldebug_line0
 767 0029 00000000 		.4byte	.Ldebug_macinfo0
 768 002d 02       		.uleb128 0x2
 769 002e 01       		.byte	0x1
 770 002f B0000000 		.4byte	.LASF11
 771 0033 01       		.byte	0x1
 772 0034 28       		.byte	0x28
 773 0035 01       		.byte	0x1
 774 0036 00000000 		.4byte	.LFB0
 775 003a 72000000 		.4byte	.LFE0
 776 003e 00000000 		.4byte	.LLST0
 777 0042 63000000 		.4byte	0x63
 778 0046 03       		.uleb128 0x3
 779 0047 73726300 		.ascii	"src\000"
 780 004b 01       		.byte	0x1
 781 004c 2A       		.byte	0x2a
 782 004d 63000000 		.4byte	0x63
 783 0051 02       		.byte	0x2
 784 0052 91       		.byte	0x91
 785 0053 70       		.sleb128 -16
 786 0054 04       		.uleb128 0x4
 787 0055 A5000000 		.4byte	.LASF0
 788 0059 01       		.byte	0x1
 789 005a 2A       		.byte	0x2a
 790 005b 63000000 		.4byte	0x63
 791 005f 02       		.byte	0x2
 792 0060 91       		.byte	0x91
 793 0061 74       		.sleb128 -12
 794 0062 00       		.byte	0x0
 795 0063 05       		.uleb128 0x5
 796 0064 04       		.byte	0x4
 797 0065 69000000 		.4byte	0x69
 798 0069 06       		.uleb128 0x6
 799 006a 04       		.byte	0x4
 800 006b 07       		.byte	0x7
 801 006c 1A000000 		.4byte	.LASF12
 802 0070 07       		.uleb128 0x7
 803 0071 00000000 		.4byte	.LASF13
 804 0075 01       		.byte	0x1
 805 0076 42       		.byte	0x42
 806 0077 01       		.byte	0x1
 807 0078 00000000 		.4byte	.LFB1
 808 007c 06000000 		.4byte	.LFE1
 809 0080 37000000 		.4byte	.LLST1
 810 0084 08       		.uleb128 0x8
 811 0085 10000000 		.4byte	.LASF1
ARM GAS  /tmp/cc6hjd24.s 			page 25


 812 0089 01       		.byte	0x1
 813 008a 1E       		.byte	0x1e
 814 008b 01       		.byte	0x1
 815 008c 01       		.byte	0x1
 816 008d 09       		.uleb128 0x9
 817 008e 2C000000 		.4byte	.LASF2
 818 0092 01       		.byte	0x1
 819 0093 1F       		.byte	0x1f
 820 0094 69000000 		.4byte	0x69
 821 0098 01       		.byte	0x1
 822 0099 01       		.byte	0x1
 823 009a 09       		.uleb128 0x9
 824 009b 03010000 		.4byte	.LASF3
 825 009f 01       		.byte	0x1
 826 00a0 20       		.byte	0x20
 827 00a1 69000000 		.4byte	0x69
 828 00a5 01       		.byte	0x1
 829 00a6 01       		.byte	0x1
 830 00a7 09       		.uleb128 0x9
 831 00a8 FC000000 		.4byte	.LASF4
 832 00ac 01       		.byte	0x1
 833 00ad 21       		.byte	0x21
 834 00ae 69000000 		.4byte	0x69
 835 00b2 01       		.byte	0x1
 836 00b3 01       		.byte	0x1
 837 00b4 09       		.uleb128 0x9
 838 00b5 EB000000 		.4byte	.LASF5
 839 00b9 01       		.byte	0x1
 840 00ba 22       		.byte	0x22
 841 00bb 69000000 		.4byte	0x69
 842 00bf 01       		.byte	0x1
 843 00c0 01       		.byte	0x1
 844 00c1 09       		.uleb128 0x9
 845 00c2 AA000000 		.4byte	.LASF6
 846 00c6 01       		.byte	0x1
 847 00c7 23       		.byte	0x23
 848 00c8 69000000 		.4byte	0x69
 849 00cc 01       		.byte	0x1
 850 00cd 01       		.byte	0x1
 851 00ce 0A       		.uleb128 0xa
 852 00cf E3000000 		.4byte	0xe3
 853 00d3 DE000000 		.4byte	0xde
 854 00d7 0B       		.uleb128 0xb
 855 00d8 DE000000 		.4byte	0xde
 856 00dc 32       		.byte	0x32
 857 00dd 00       		.byte	0x0
 858 00de 0C       		.uleb128 0xc
 859 00df 04       		.byte	0x4
 860 00e0 07       		.byte	0x7
 861 00e1 0D       		.uleb128 0xd
 862 00e2 01       		.byte	0x1
 863 00e3 05       		.uleb128 0x5
 864 00e4 04       		.byte	0x4
 865 00e5 E1000000 		.4byte	0xe1
 866 00e9 0E       		.uleb128 0xe
 867 00ea BE000000 		.4byte	.LASF7
 868 00ee 01       		.byte	0x1
ARM GAS  /tmp/cc6hjd24.s 			page 26


 869 00ef 8B       		.byte	0x8b
 870 00f0 FB000000 		.4byte	0xfb
 871 00f4 01       		.byte	0x1
 872 00f5 05       		.byte	0x5
 873 00f6 03       		.byte	0x3
 874 00f7 00000000 		.4byte	_NVIC_Handler_Functions
 875 00fb 0F       		.uleb128 0xf
 876 00fc CE000000 		.4byte	0xce
 877 0100 00       		.byte	0x0
 878              		.section	.debug_abbrev
 879 0000 01       		.uleb128 0x1
 880 0001 11       		.uleb128 0x11
 881 0002 01       		.byte	0x1
 882 0003 25       		.uleb128 0x25
 883 0004 0E       		.uleb128 0xe
 884 0005 13       		.uleb128 0x13
 885 0006 0B       		.uleb128 0xb
 886 0007 03       		.uleb128 0x3
 887 0008 0E       		.uleb128 0xe
 888 0009 1B       		.uleb128 0x1b
 889 000a 0E       		.uleb128 0xe
 890 000b 11       		.uleb128 0x11
 891 000c 01       		.uleb128 0x1
 892 000d 52       		.uleb128 0x52
 893 000e 01       		.uleb128 0x1
 894 000f 55       		.uleb128 0x55
 895 0010 06       		.uleb128 0x6
 896 0011 10       		.uleb128 0x10
 897 0012 06       		.uleb128 0x6
 898 0013 43       		.uleb128 0x43
 899 0014 06       		.uleb128 0x6
 900 0015 00       		.byte	0x0
 901 0016 00       		.byte	0x0
 902 0017 02       		.uleb128 0x2
 903 0018 2E       		.uleb128 0x2e
 904 0019 01       		.byte	0x1
 905 001a 3F       		.uleb128 0x3f
 906 001b 0C       		.uleb128 0xc
 907 001c 03       		.uleb128 0x3
 908 001d 0E       		.uleb128 0xe
 909 001e 3A       		.uleb128 0x3a
 910 001f 0B       		.uleb128 0xb
 911 0020 3B       		.uleb128 0x3b
 912 0021 0B       		.uleb128 0xb
 913 0022 27       		.uleb128 0x27
 914 0023 0C       		.uleb128 0xc
 915 0024 11       		.uleb128 0x11
 916 0025 01       		.uleb128 0x1
 917 0026 12       		.uleb128 0x12
 918 0027 01       		.uleb128 0x1
 919 0028 40       		.uleb128 0x40
 920 0029 06       		.uleb128 0x6
 921 002a 01       		.uleb128 0x1
 922 002b 13       		.uleb128 0x13
 923 002c 00       		.byte	0x0
 924 002d 00       		.byte	0x0
 925 002e 03       		.uleb128 0x3
ARM GAS  /tmp/cc6hjd24.s 			page 27


 926 002f 34       		.uleb128 0x34
 927 0030 00       		.byte	0x0
 928 0031 03       		.uleb128 0x3
 929 0032 08       		.uleb128 0x8
 930 0033 3A       		.uleb128 0x3a
 931 0034 0B       		.uleb128 0xb
 932 0035 3B       		.uleb128 0x3b
 933 0036 0B       		.uleb128 0xb
 934 0037 49       		.uleb128 0x49
 935 0038 13       		.uleb128 0x13
 936 0039 02       		.uleb128 0x2
 937 003a 0A       		.uleb128 0xa
 938 003b 00       		.byte	0x0
 939 003c 00       		.byte	0x0
 940 003d 04       		.uleb128 0x4
 941 003e 34       		.uleb128 0x34
 942 003f 00       		.byte	0x0
 943 0040 03       		.uleb128 0x3
 944 0041 0E       		.uleb128 0xe
 945 0042 3A       		.uleb128 0x3a
 946 0043 0B       		.uleb128 0xb
 947 0044 3B       		.uleb128 0x3b
 948 0045 0B       		.uleb128 0xb
 949 0046 49       		.uleb128 0x49
 950 0047 13       		.uleb128 0x13
 951 0048 02       		.uleb128 0x2
 952 0049 0A       		.uleb128 0xa
 953 004a 00       		.byte	0x0
 954 004b 00       		.byte	0x0
 955 004c 05       		.uleb128 0x5
 956 004d 0F       		.uleb128 0xf
 957 004e 00       		.byte	0x0
 958 004f 0B       		.uleb128 0xb
 959 0050 0B       		.uleb128 0xb
 960 0051 49       		.uleb128 0x49
 961 0052 13       		.uleb128 0x13
 962 0053 00       		.byte	0x0
 963 0054 00       		.byte	0x0
 964 0055 06       		.uleb128 0x6
 965 0056 24       		.uleb128 0x24
 966 0057 00       		.byte	0x0
 967 0058 0B       		.uleb128 0xb
 968 0059 0B       		.uleb128 0xb
 969 005a 3E       		.uleb128 0x3e
 970 005b 0B       		.uleb128 0xb
 971 005c 03       		.uleb128 0x3
 972 005d 0E       		.uleb128 0xe
 973 005e 00       		.byte	0x0
 974 005f 00       		.byte	0x0
 975 0060 07       		.uleb128 0x7
 976 0061 2E       		.uleb128 0x2e
 977 0062 00       		.byte	0x0
 978 0063 03       		.uleb128 0x3
 979 0064 0E       		.uleb128 0xe
 980 0065 3A       		.uleb128 0x3a
 981 0066 0B       		.uleb128 0xb
 982 0067 3B       		.uleb128 0x3b
ARM GAS  /tmp/cc6hjd24.s 			page 28


 983 0068 0B       		.uleb128 0xb
 984 0069 27       		.uleb128 0x27
 985 006a 0C       		.uleb128 0xc
 986 006b 11       		.uleb128 0x11
 987 006c 01       		.uleb128 0x1
 988 006d 12       		.uleb128 0x12
 989 006e 01       		.uleb128 0x1
 990 006f 40       		.uleb128 0x40
 991 0070 06       		.uleb128 0x6
 992 0071 00       		.byte	0x0
 993 0072 00       		.byte	0x0
 994 0073 08       		.uleb128 0x8
 995 0074 34       		.uleb128 0x34
 996 0075 00       		.byte	0x0
 997 0076 03       		.uleb128 0x3
 998 0077 0E       		.uleb128 0xe
 999 0078 3A       		.uleb128 0x3a
 1000 0079 0B       		.uleb128 0xb
 1001 007a 3B       		.uleb128 0x3b
 1002 007b 0B       		.uleb128 0xb
 1003 007c 3F       		.uleb128 0x3f
 1004 007d 0C       		.uleb128 0xc
 1005 007e 3C       		.uleb128 0x3c
 1006 007f 0C       		.uleb128 0xc
 1007 0080 00       		.byte	0x0
 1008 0081 00       		.byte	0x0
 1009 0082 09       		.uleb128 0x9
 1010 0083 34       		.uleb128 0x34
 1011 0084 00       		.byte	0x0
 1012 0085 03       		.uleb128 0x3
 1013 0086 0E       		.uleb128 0xe
 1014 0087 3A       		.uleb128 0x3a
 1015 0088 0B       		.uleb128 0xb
 1016 0089 3B       		.uleb128 0x3b
 1017 008a 0B       		.uleb128 0xb
 1018 008b 49       		.uleb128 0x49
 1019 008c 13       		.uleb128 0x13
 1020 008d 3F       		.uleb128 0x3f
 1021 008e 0C       		.uleb128 0xc
 1022 008f 3C       		.uleb128 0x3c
 1023 0090 0C       		.uleb128 0xc
 1024 0091 00       		.byte	0x0
 1025 0092 00       		.byte	0x0
 1026 0093 0A       		.uleb128 0xa
 1027 0094 01       		.uleb128 0x1
 1028 0095 01       		.byte	0x1
 1029 0096 49       		.uleb128 0x49
 1030 0097 13       		.uleb128 0x13
 1031 0098 01       		.uleb128 0x1
 1032 0099 13       		.uleb128 0x13
 1033 009a 00       		.byte	0x0
 1034 009b 00       		.byte	0x0
 1035 009c 0B       		.uleb128 0xb
 1036 009d 21       		.uleb128 0x21
 1037 009e 00       		.byte	0x0
 1038 009f 49       		.uleb128 0x49
 1039 00a0 13       		.uleb128 0x13
ARM GAS  /tmp/cc6hjd24.s 			page 29


 1040 00a1 2F       		.uleb128 0x2f
 1041 00a2 0B       		.uleb128 0xb
 1042 00a3 00       		.byte	0x0
 1043 00a4 00       		.byte	0x0
 1044 00a5 0C       		.uleb128 0xc
 1045 00a6 24       		.uleb128 0x24
 1046 00a7 00       		.byte	0x0
 1047 00a8 0B       		.uleb128 0xb
 1048 00a9 0B       		.uleb128 0xb
 1049 00aa 3E       		.uleb128 0x3e
 1050 00ab 0B       		.uleb128 0xb
 1051 00ac 00       		.byte	0x0
 1052 00ad 00       		.byte	0x0
 1053 00ae 0D       		.uleb128 0xd
 1054 00af 15       		.uleb128 0x15
 1055 00b0 00       		.byte	0x0
 1056 00b1 27       		.uleb128 0x27
 1057 00b2 0C       		.uleb128 0xc
 1058 00b3 00       		.byte	0x0
 1059 00b4 00       		.byte	0x0
 1060 00b5 0E       		.uleb128 0xe
 1061 00b6 34       		.uleb128 0x34
 1062 00b7 00       		.byte	0x0
 1063 00b8 03       		.uleb128 0x3
 1064 00b9 0E       		.uleb128 0xe
 1065 00ba 3A       		.uleb128 0x3a
 1066 00bb 0B       		.uleb128 0xb
 1067 00bc 3B       		.uleb128 0x3b
 1068 00bd 0B       		.uleb128 0xb
 1069 00be 49       		.uleb128 0x49
 1070 00bf 13       		.uleb128 0x13
 1071 00c0 3F       		.uleb128 0x3f
 1072 00c1 0C       		.uleb128 0xc
 1073 00c2 02       		.uleb128 0x2
 1074 00c3 0A       		.uleb128 0xa
 1075 00c4 00       		.byte	0x0
 1076 00c5 00       		.byte	0x0
 1077 00c6 0F       		.uleb128 0xf
 1078 00c7 26       		.uleb128 0x26
 1079 00c8 00       		.byte	0x0
 1080 00c9 49       		.uleb128 0x49
 1081 00ca 13       		.uleb128 0x13
 1082 00cb 00       		.byte	0x0
 1083 00cc 00       		.byte	0x0
 1084 00cd 00       		.byte	0x0
 1085              		.section	.debug_pubnames,"",%progbits
 1086 0000 3C000000 		.4byte	0x3c
 1087 0004 0200     		.2byte	0x2
 1088 0006 00000000 		.4byte	.Ldebug_info0
 1089 000a 01010000 		.4byte	0x101
 1090 000e 2D000000 		.4byte	0x2d
 1091 0012 52657365 		.ascii	"Reset_Handler\000"
 1091      745F4861 
 1091      6E646C65 
 1091      7200
 1092 0020 E9000000 		.4byte	0xe9
 1093 0024 5F4E5649 		.ascii	"_NVIC_Handler_Functions\000"
ARM GAS  /tmp/cc6hjd24.s 			page 30


 1093      435F4861 
 1093      6E646C65 
 1093      725F4675 
 1093      6E637469 
 1094 003c 00000000 		.4byte	0x0
 1095              		.section	.debug_aranges,"",%progbits
 1096 0000 24000000 		.4byte	0x24
 1097 0004 0200     		.2byte	0x2
 1098 0006 00000000 		.4byte	.Ldebug_info0
 1099 000a 04       		.byte	0x4
 1100 000b 00       		.byte	0x0
 1101 000c 0000     		.2byte	0x0
 1102 000e 0000     		.2byte	0x0
 1103 0010 00000000 		.4byte	.LFB0
 1104 0014 72000000 		.4byte	.LFE0-.LFB0
 1105 0018 00000000 		.4byte	.LFB1
 1106 001c 06000000 		.4byte	.LFE1-.LFB1
 1107 0020 00000000 		.4byte	0x0
 1108 0024 00000000 		.4byte	0x0
 1109              		.section	.debug_ranges,"",%progbits
 1110              	.Ldebug_ranges0:
 1111 0000 00000000 		.4byte	.Ltext0
 1112 0004 00000000 		.4byte	.Letext0
 1113 0008 00000000 		.4byte	.LFB0
 1114 000c 72000000 		.4byte	.LFE0
 1115 0010 00000000 		.4byte	.LFB1
 1116 0014 06000000 		.4byte	.LFE1
 1117 0018 00000000 		.4byte	0x0
 1118 001c 00000000 		.4byte	0x0
 1119              		.section	.debug_macinfo
 1120 0d22 00       		.byte	0x0
 1121              		.section	.debug_str,"MS",%progbits,1
 1122              	.LASF13:
 1123 0000 44656661 		.ascii	"Default_Handler\000"
 1123      756C745F 
 1123      48616E64 
 1123      6C657200 
 1124              	.LASF1:
 1125 0010 5F537461 		.ascii	"_StackTop\000"
 1125      636B546F 
 1125      7000
 1126              	.LASF12:
 1127 001a 6C6F6E67 		.ascii	"long unsigned int\000"
 1127      20756E73 
 1127      69676E65 
 1127      6420696E 
 1127      7400
 1128              	.LASF2:
 1129 002c 5F646174 		.ascii	"_data\000"
 1129      6100
 1130              	.LASF10:
 1131 0032 2F686F6D 		.ascii	"/home/cas/Documentos/casainho-projects/trunk/sdcard"
 1131      652F6361 
 1131      732F446F 
 1131      63756D65 
 1131      6E746F73 
 1132 0065 5F626174 		.ascii	"_bathroom_scale/firmware/beurer_bg_16/Firmware/Free"
ARM GAS  /tmp/cc6hjd24.s 			page 31


 1132      68726F6F 
 1132      6D5F7363 
 1132      616C652F 
 1132      6669726D 
 1133 0098 52544F53 		.ascii	"RTOS-LPC17x8\000"
 1133      2D4C5043 
 1133      31377838 
 1133      00
 1134              	.LASF0:
 1135 00a5 64657374 		.ascii	"dest\000"
 1135      00
 1136              	.LASF6:
 1137 00aa 5F656273 		.ascii	"_ebss\000"
 1137      7300
 1138              	.LASF11:
 1139 00b0 52657365 		.ascii	"Reset_Handler\000"
 1139      745F4861 
 1139      6E646C65 
 1139      7200
 1140              	.LASF7:
 1141 00be 5F4E5649 		.ascii	"_NVIC_Handler_Functions\000"
 1141      435F4861 
 1141      6E646C65 
 1141      725F4675 
 1141      6E637469 
 1142              	.LASF9:
 1143 00d6 4C504331 		.ascii	"LPC17xx_Interrupts.c\000"
 1143      3778785F 
 1143      496E7465 
 1143      72727570 
 1143      74732E63 
 1144              	.LASF5:
 1145 00eb 5F627373 		.ascii	"_bss\000"
 1145      00
 1146              	.LASF8:
 1147 00f0 474E5520 		.ascii	"GNU C 4.4.1\000"
 1147      4320342E 
 1147      342E3100 
 1148              	.LASF4:
 1149 00fc 5F657465 		.ascii	"_etext\000"
 1149      787400
 1150              	.LASF3:
 1151 0103 5F656461 		.ascii	"_edata\000"
 1151      746100
 1152              		.ident	"GCC: (Sourcery G++ Lite 2009q3-68) 4.4.1"
ARM GAS  /tmp/cc6hjd24.s 			page 32


DEFINED SYMBOLS
                            *ABS*:00000000 LPC17xx_Interrupts.c
     /tmp/cc6hjd24.s:417    .text.Reset_Handler:00000000 $t
     /tmp/cc6hjd24.s:422    .text.Reset_Handler:00000000 Reset_Handler
     /tmp/cc6hjd24.s:490    .text.Default_Handler:00000000 $t
     /tmp/cc6hjd24.s:494    .text.Default_Handler:00000000 Default_Handler
     /tmp/cc6hjd24.s:514    .irq_handler_table:00000000 _NVIC_Handler_Functions
     /tmp/cc6hjd24.s:511    .irq_handler_table:00000000 $d
     /tmp/cc6hjd24.s:494    .text.Default_Handler:00000000 NMI_Handler
     /tmp/cc6hjd24.s:494    .text.Default_Handler:00000000 HardFault_Handler
     /tmp/cc6hjd24.s:494    .text.Default_Handler:00000000 MemManagement_Handler
     /tmp/cc6hjd24.s:494    .text.Default_Handler:00000000 BusFault_Handler
     /tmp/cc6hjd24.s:494    .text.Default_Handler:00000000 UsageFault_Handler
     /tmp/cc6hjd24.s:494    .text.Default_Handler:00000000 DebugMon_Handler
     /tmp/cc6hjd24.s:494    .text.Default_Handler:00000000 WDT_IRQHandler
     /tmp/cc6hjd24.s:494    .text.Default_Handler:00000000 TIMER0_IRQHandler
     /tmp/cc6hjd24.s:494    .text.Default_Handler:00000000 TIMER1_IRQHandler
     /tmp/cc6hjd24.s:494    .text.Default_Handler:00000000 TIMER2_IRQHandler
     /tmp/cc6hjd24.s:494    .text.Default_Handler:00000000 TIMER3_IRQHandler
     /tmp/cc6hjd24.s:494    .text.Default_Handler:00000000 UART0_IRQHandler
     /tmp/cc6hjd24.s:494    .text.Default_Handler:00000000 UART1_IRQHandler
     /tmp/cc6hjd24.s:494    .text.Default_Handler:00000000 UART2_IRQHandler
     /tmp/cc6hjd24.s:494    .text.Default_Handler:00000000 UART3_IRQHandler
     /tmp/cc6hjd24.s:494    .text.Default_Handler:00000000 PWM1_IRQHandler
     /tmp/cc6hjd24.s:494    .text.Default_Handler:00000000 I2C0_IRQHandler
     /tmp/cc6hjd24.s:494    .text.Default_Handler:00000000 I2C1_IRQHandler
     /tmp/cc6hjd24.s:494    .text.Default_Handler:00000000 I2C2_IRQHandler
     /tmp/cc6hjd24.s:494    .text.Default_Handler:00000000 SPI_IRQHandler
     /tmp/cc6hjd24.s:494    .text.Default_Handler:00000000 SSP0_IRQHandler
     /tmp/cc6hjd24.s:494    .text.Default_Handler:00000000 SSP1_IRQHandler
     /tmp/cc6hjd24.s:494    .text.Default_Handler:00000000 PLL0_IRQHandler
     /tmp/cc6hjd24.s:494    .text.Default_Handler:00000000 RTC_IRQHandler
     /tmp/cc6hjd24.s:494    .text.Default_Handler:00000000 EINT0_IRQHandler
     /tmp/cc6hjd24.s:494    .text.Default_Handler:00000000 EINT1_IRQHandler
     /tmp/cc6hjd24.s:494    .text.Default_Handler:00000000 EINT2_IRQHandler
     /tmp/cc6hjd24.s:494    .text.Default_Handler:00000000 EINT3_IRQHandler
     /tmp/cc6hjd24.s:494    .text.Default_Handler:00000000 ADC_IRQHandler
     /tmp/cc6hjd24.s:494    .text.Default_Handler:00000000 BOD_IRQHandler
     /tmp/cc6hjd24.s:494    .text.Default_Handler:00000000 USB_IRQHandler
     /tmp/cc6hjd24.s:494    .text.Default_Handler:00000000 CAN_IRQHandler
     /tmp/cc6hjd24.s:494    .text.Default_Handler:00000000 DMA_IRQHandler
     /tmp/cc6hjd24.s:494    .text.Default_Handler:00000000 I2S_IRQHandler
     /tmp/cc6hjd24.s:494    .text.Default_Handler:00000000 vEMAC_ISR
     /tmp/cc6hjd24.s:494    .text.Default_Handler:00000000 RIT_IRQHandler
     /tmp/cc6hjd24.s:494    .text.Default_Handler:00000000 MCPWM_IRQHandler
     /tmp/cc6hjd24.s:494    .text.Default_Handler:00000000 QEI_IRQHandler
     /tmp/cc6hjd24.s:494    .text.Default_Handler:00000000 PLL1_IRQHandler
     /tmp/cc6hjd24.s:494    .text.Default_Handler:00000000 USBACT_IRQHandler
     /tmp/cc6hjd24.s:494    .text.Default_Handler:00000000 CANACT_IRQHandler
     /tmp/cc6hjd24.s:494    .text.Default_Handler:00000000 ENET_IRQHandler
     /tmp/cc6hjd24.s:663    .debug_frame:00000010 $d

UNDEFINED SYMBOLS
_etext
_data
_edata
_bss
ARM GAS  /tmp/cc6hjd24.s 			page 33


_ebss
main
_StackTop
vPortSVCHandler
xPortPendSVHandler
xPortSysTickHandler
